
obj/release/FFTransformer.o:     file format pe-i386


Disassembly of section .text$_ZN13FFTransformerIfED1Ev:

00000000 <__ZN13FFTransformerIfED1Ev>:
   0:	53                   	push   ebx
   1:	89 cb                	mov    ebx,ecx
   3:	83 ec 18             	sub    esp,0x18
   6:	8b 41 0c             	mov    eax,DWORD PTR [ecx+0xc]
   9:	c7 01 08 00 00 00    	mov    DWORD PTR [ecx],0x8
   f:	85 c0                	test   eax,eax
  11:	74 08                	je     1b <__ZN13FFTransformerIfED1Ev+0x1b>
  13:	89 04 24             	mov    DWORD PTR [esp],eax
  16:	e8 00 00 00 00       	call   1b <__ZN13FFTransformerIfED1Ev+0x1b>
  1b:	8b 43 10             	mov    eax,DWORD PTR [ebx+0x10]
  1e:	85 c0                	test   eax,eax
  20:	74 08                	je     2a <__ZN13FFTransformerIfED1Ev+0x2a>
  22:	89 04 24             	mov    DWORD PTR [esp],eax
  25:	e8 00 00 00 00       	call   2a <__ZN13FFTransformerIfED1Ev+0x2a>
  2a:	83 c4 18             	add    esp,0x18
  2d:	5b                   	pop    ebx
  2e:	c3                   	ret    
  2f:	90                   	nop

Disassembly of section .text$_ZN13FFTransformerIdED1Ev:

00000000 <__ZN13FFTransformerIdED1Ev>:
   0:	53                   	push   ebx
   1:	89 cb                	mov    ebx,ecx
   3:	83 ec 18             	sub    esp,0x18
   6:	8b 41 0c             	mov    eax,DWORD PTR [ecx+0xc]
   9:	c7 01 08 00 00 00    	mov    DWORD PTR [ecx],0x8
   f:	85 c0                	test   eax,eax
  11:	74 08                	je     1b <__ZN13FFTransformerIdED1Ev+0x1b>
  13:	89 04 24             	mov    DWORD PTR [esp],eax
  16:	e8 00 00 00 00       	call   1b <__ZN13FFTransformerIdED1Ev+0x1b>
  1b:	8b 43 10             	mov    eax,DWORD PTR [ebx+0x10]
  1e:	85 c0                	test   eax,eax
  20:	74 08                	je     2a <__ZN13FFTransformerIdED1Ev+0x2a>
  22:	89 04 24             	mov    DWORD PTR [esp],eax
  25:	e8 00 00 00 00       	call   2a <__ZN13FFTransformerIdED1Ev+0x2a>
  2a:	83 c4 18             	add    esp,0x18
  2d:	5b                   	pop    ebx
  2e:	c3                   	ret    
  2f:	90                   	nop

Disassembly of section .text$_ZN13FFTransformerIeED1Ev:

00000000 <__ZN13FFTransformerIeED1Ev>:
   0:	53                   	push   ebx
   1:	89 cb                	mov    ebx,ecx
   3:	83 ec 18             	sub    esp,0x18
   6:	8b 41 0c             	mov    eax,DWORD PTR [ecx+0xc]
   9:	c7 01 08 00 00 00    	mov    DWORD PTR [ecx],0x8
   f:	85 c0                	test   eax,eax
  11:	74 08                	je     1b <__ZN13FFTransformerIeED1Ev+0x1b>
  13:	89 04 24             	mov    DWORD PTR [esp],eax
  16:	e8 00 00 00 00       	call   1b <__ZN13FFTransformerIeED1Ev+0x1b>
  1b:	8b 43 10             	mov    eax,DWORD PTR [ebx+0x10]
  1e:	85 c0                	test   eax,eax
  20:	74 08                	je     2a <__ZN13FFTransformerIeED1Ev+0x2a>
  22:	89 04 24             	mov    DWORD PTR [esp],eax
  25:	e8 00 00 00 00       	call   2a <__ZN13FFTransformerIeED1Ev+0x2a>
  2a:	83 c4 18             	add    esp,0x18
  2d:	5b                   	pop    ebx
  2e:	c3                   	ret    
  2f:	90                   	nop

Disassembly of section .text$_ZN13FFTransformerIfED0Ev:

00000000 <__ZN13FFTransformerIfED0Ev>:
   0:	53                   	push   ebx
   1:	89 cb                	mov    ebx,ecx
   3:	83 ec 18             	sub    esp,0x18
   6:	e8 00 00 00 00       	call   b <__ZN13FFTransformerIfED0Ev+0xb>
   b:	89 1c 24             	mov    DWORD PTR [esp],ebx
   e:	e8 00 00 00 00       	call   13 <__ZN13FFTransformerIfED0Ev+0x13>
  13:	83 c4 18             	add    esp,0x18
  16:	5b                   	pop    ebx
  17:	c3                   	ret    
  18:	90                   	nop
  19:	90                   	nop
  1a:	90                   	nop
  1b:	90                   	nop
  1c:	90                   	nop
  1d:	90                   	nop
  1e:	90                   	nop
  1f:	90                   	nop

Disassembly of section .text$_ZN13FFTransformerIdED0Ev:

00000000 <__ZN13FFTransformerIdED0Ev>:
   0:	53                   	push   ebx
   1:	89 cb                	mov    ebx,ecx
   3:	83 ec 18             	sub    esp,0x18
   6:	e8 00 00 00 00       	call   b <__ZN13FFTransformerIdED0Ev+0xb>
   b:	89 1c 24             	mov    DWORD PTR [esp],ebx
   e:	e8 00 00 00 00       	call   13 <__ZN13FFTransformerIdED0Ev+0x13>
  13:	83 c4 18             	add    esp,0x18
  16:	5b                   	pop    ebx
  17:	c3                   	ret    
  18:	90                   	nop
  19:	90                   	nop
  1a:	90                   	nop
  1b:	90                   	nop
  1c:	90                   	nop
  1d:	90                   	nop
  1e:	90                   	nop
  1f:	90                   	nop

Disassembly of section .text$_ZN13FFTransformerIeED0Ev:

00000000 <__ZN13FFTransformerIeED0Ev>:
   0:	53                   	push   ebx
   1:	89 cb                	mov    ebx,ecx
   3:	83 ec 18             	sub    esp,0x18
   6:	e8 00 00 00 00       	call   b <__ZN13FFTransformerIeED0Ev+0xb>
   b:	89 1c 24             	mov    DWORD PTR [esp],ebx
   e:	e8 00 00 00 00       	call   13 <__ZN13FFTransformerIeED0Ev+0x13>
  13:	83 c4 18             	add    esp,0x18
  16:	5b                   	pop    ebx
  17:	c3                   	ret    
  18:	90                   	nop
  19:	90                   	nop
  1a:	90                   	nop
  1b:	90                   	nop
  1c:	90                   	nop
  1d:	90                   	nop
  1e:	90                   	nop
  1f:	90                   	nop

Disassembly of section .text$_ZN13FFTransformerIfE12isPowerOfTwoEj:

00000000 <__ZN13FFTransformerIfE12isPowerOfTwoEj>:
   0:	8b 44 24 04          	mov    eax,DWORD PTR [esp+0x4]
   4:	8d 50 ff             	lea    edx,[eax-0x1]
   7:	85 c2                	test   edx,eax
   9:	0f 94 c0             	sete   al
   c:	c2 04 00             	ret    0x4
   f:	90                   	nop

Disassembly of section .text$_ZN13FFTransformerIfE13getPowerOfTwoEj:

00000000 <__ZN13FFTransformerIfE13getPowerOfTwoEj>:
   0:	0f bd 54 24 04       	bsr    edx,DWORD PTR [esp+0x4]
   5:	b8 1f 00 00 00       	mov    eax,0x1f
   a:	83 f2 1f             	xor    edx,0x1f
   d:	29 d0                	sub    eax,edx
   f:	c2 04 00             	ret    0x4
  12:	90                   	nop
  13:	90                   	nop
  14:	90                   	nop
  15:	90                   	nop
  16:	90                   	nop
  17:	90                   	nop
  18:	90                   	nop
  19:	90                   	nop
  1a:	90                   	nop
  1b:	90                   	nop
  1c:	90                   	nop
  1d:	90                   	nop
  1e:	90                   	nop
  1f:	90                   	nop

Disassembly of section .text$_ZN13FFTransformerIfE15bitReverseInt32Ej:

00000000 <__ZN13FFTransformerIfE15bitReverseInt32Ej>:
   0:	53                   	push   ebx
   1:	8b 44 24 08          	mov    eax,DWORD PTR [esp+0x8]
   5:	ba 04 00 00 00       	mov    edx,0x4
   a:	0f b6 c8             	movzx  ecx,al
   d:	31 c8                	xor    eax,ecx
   f:	89 c3                	mov    ebx,eax
  11:	0f b6 81 00 00 00 00 	movzx  eax,BYTE PTR [ecx+0x0]
  18:	09 d8                	or     eax,ebx
  1a:	c1 c8 08             	ror    eax,0x8
  1d:	83 ea 01             	sub    edx,0x1
  20:	75 e8                	jne    a <__ZN13FFTransformerIfE15bitReverseInt32Ej+0xa>
  22:	0f c8                	bswap  eax
  24:	5b                   	pop    ebx
  25:	c2 04 00             	ret    0x4
  28:	90                   	nop
  29:	90                   	nop
  2a:	90                   	nop
  2b:	90                   	nop
  2c:	90                   	nop
  2d:	90                   	nop
  2e:	90                   	nop
  2f:	90                   	nop

Disassembly of section .text$_ZN13FFTransformerIfE12arrayShuffleEP7ComplexIfEi:

00000000 <__ZN13FFTransformerIfE12arrayShuffleEP7ComplexIfEi>:
   0:	55                   	push   ebp
   1:	57                   	push   edi
   2:	56                   	push   esi
   3:	53                   	push   ebx
   4:	8b 5c 24 18          	mov    ebx,DWORD PTR [esp+0x18]
   8:	8b 7c 24 14          	mov    edi,DWORD PTR [esp+0x14]
   c:	85 db                	test   ebx,ebx
   e:	7e 3f                	jle    4f <__ZN13FFTransformerIfE12arrayShuffleEP7ComplexIfEi+0x4f>
  10:	8b 71 10             	mov    esi,DWORD PTR [ecx+0x10]
  13:	89 fa                	mov    edx,edi
  15:	31 c0                	xor    eax,eax
  17:	89 f5                	mov    ebp,esi
  19:	8d b4 26 00 00 00 00 	lea    esi,[esi+eiz*1+0x0]
  20:	8b 4c 85 00          	mov    ecx,DWORD PTR [ebp+eax*4+0x0]
  24:	39 c1                	cmp    ecx,eax
  26:	7e 1d                	jle    45 <__ZN13FFTransformerIfE12arrayShuffleEP7ComplexIfEi+0x45>
  28:	8b 7c 24 14          	mov    edi,DWORD PTR [esp+0x14]
  2c:	d9 02                	fld    DWORD PTR [edx]
  2e:	d9 42 04             	fld    DWORD PTR [edx+0x4]
  31:	d9 c9                	fxch   st(1)
  33:	8d 0c cf             	lea    ecx,[edi+ecx*8]
  36:	8b 31                	mov    esi,DWORD PTR [ecx]
  38:	8b 79 04             	mov    edi,DWORD PTR [ecx+0x4]
  3b:	89 32                	mov    DWORD PTR [edx],esi
  3d:	89 7a 04             	mov    DWORD PTR [edx+0x4],edi
  40:	d9 19                	fstp   DWORD PTR [ecx]
  42:	d9 59 04             	fstp   DWORD PTR [ecx+0x4]
  45:	83 c0 01             	add    eax,0x1
  48:	83 c2 08             	add    edx,0x8
  4b:	39 d8                	cmp    eax,ebx
  4d:	75 d1                	jne    20 <__ZN13FFTransformerIfE12arrayShuffleEP7ComplexIfEi+0x20>
  4f:	5b                   	pop    ebx
  50:	5e                   	pop    esi
  51:	5f                   	pop    edi
  52:	5d                   	pop    ebp
  53:	c2 08 00             	ret    0x8
  56:	90                   	nop
  57:	90                   	nop
  58:	90                   	nop
  59:	90                   	nop
  5a:	90                   	nop
  5b:	90                   	nop
  5c:	90                   	nop
  5d:	90                   	nop
  5e:	90                   	nop
  5f:	90                   	nop

Disassembly of section .text$_ZN13FFTransformerIfEC2Ev:

00000000 <__ZN13FFTransformerIfEC2Ev>:
   0:	c7 01 08 00 00 00    	mov    DWORD PTR [ecx],0x8
   6:	c7 41 0c 00 00 00 00 	mov    DWORD PTR [ecx+0xc],0x0
   d:	c3                   	ret    
   e:	90                   	nop
   f:	90                   	nop

Disassembly of section .text$_ZN13FFTransformerIfEC1Ev:

00000000 <__ZN13FFTransformerIfEC1Ev>:
   0:	c7 01 08 00 00 00    	mov    DWORD PTR [ecx],0x8
   6:	c7 41 0c 00 00 00 00 	mov    DWORD PTR [ecx+0xc],0x0
   d:	c3                   	ret    
   e:	90                   	nop
   f:	90                   	nop

Disassembly of section .text$_ZN13FFTransformerIfED2Ev:

00000000 <__ZN13FFTransformerIfED2Ev>:
   0:	53                   	push   ebx
   1:	89 cb                	mov    ebx,ecx
   3:	83 ec 18             	sub    esp,0x18
   6:	8b 41 0c             	mov    eax,DWORD PTR [ecx+0xc]
   9:	c7 01 08 00 00 00    	mov    DWORD PTR [ecx],0x8
   f:	85 c0                	test   eax,eax
  11:	74 08                	je     1b <__ZN13FFTransformerIfED2Ev+0x1b>
  13:	89 04 24             	mov    DWORD PTR [esp],eax
  16:	e8 00 00 00 00       	call   1b <__ZN13FFTransformerIfED2Ev+0x1b>
  1b:	8b 43 10             	mov    eax,DWORD PTR [ebx+0x10]
  1e:	85 c0                	test   eax,eax
  20:	74 08                	je     2a <__ZN13FFTransformerIfED2Ev+0x2a>
  22:	89 04 24             	mov    DWORD PTR [esp],eax
  25:	e8 00 00 00 00       	call   2a <__ZN13FFTransformerIfED2Ev+0x2a>
  2a:	83 c4 18             	add    esp,0x18
  2d:	5b                   	pop    ebx
  2e:	c3                   	ret    
  2f:	90                   	nop

Disassembly of section .text$_ZN13FFTransformerIfE7FFTInitEii:

00000000 <__ZN13FFTransformerIfE7FFTInitEii>:
   0:	55                   	push   ebp
   1:	31 c0                	xor    eax,eax
   3:	57                   	push   edi
   4:	56                   	push   esi
   5:	53                   	push   ebx
   6:	83 ec 3c             	sub    esp,0x3c
   9:	8b 5c 24 50          	mov    ebx,DWORD PTR [esp+0x50]
   d:	85 db                	test   ebx,ebx
   f:	0f 8e 34 01 00 00    	jle    149 <__ZN13FFTransformerIfE7FFTInitEii+0x149>
  15:	8b 54 24 50          	mov    edx,DWORD PTR [esp+0x50]
  19:	83 ea 01             	sub    edx,0x1
  1c:	85 54 24 50          	test   DWORD PTR [esp+0x50],edx
  20:	0f 85 23 01 00 00    	jne    149 <__ZN13FFTransformerIfE7FFTInitEii+0x149>
  26:	8b 44 24 50          	mov    eax,DWORD PTR [esp+0x50]
  2a:	89 cf                	mov    edi,ecx
  2c:	8b 54 24 54          	mov    edx,DWORD PTR [esp+0x54]
  30:	89 41 04             	mov    DWORD PTR [ecx+0x4],eax
  33:	31 c0                	xor    eax,eax
  35:	85 d2                	test   edx,edx
  37:	0f 9f c0             	setg   al
  3a:	81 7c 24 50 00 00 e0 	cmp    DWORD PTR [esp+0x50],0xfe00000
  41:	0f 
  42:	89 41 08             	mov    DWORD PTR [ecx+0x8],eax
  45:	0f 87 08 01 00 00    	ja     153 <__ZN13FFTransformerIfE7FFTInitEii+0x153>
  4b:	8b 44 24 50          	mov    eax,DWORD PTR [esp+0x50]
  4f:	c1 e0 03             	shl    eax,0x3
  52:	89 04 24             	mov    DWORD PTR [esp],eax
  55:	e8 00 00 00 00       	call   5a <__ZN13FFTransformerIfE7FFTInitEii+0x5a>
  5a:	89 47 0c             	mov    DWORD PTR [edi+0xc],eax
  5d:	8b 44 24 50          	mov    eax,DWORD PTR [esp+0x50]
  61:	c1 e0 02             	shl    eax,0x2
  64:	89 04 24             	mov    DWORD PTR [esp],eax
  67:	e8 00 00 00 00       	call   6c <__ZN13FFTransformerIfE7FFTInitEii+0x6c>
  6c:	83 7c 24 50 01       	cmp    DWORD PTR [esp+0x50],0x1
  71:	89 44 24 20          	mov    DWORD PTR [esp+0x20],eax
  75:	89 47 10             	mov    DWORD PTR [edi+0x10],eax
  78:	74 7e                	je     f8 <__ZN13FFTransformerIfE7FFTInitEii+0xf8>
  7a:	db 44 24 54          	fild   DWORD PTR [esp+0x54]
  7e:	be 01 00 00 00       	mov    esi,0x1
  83:	dc 0d 00 00 00 00    	fmul   QWORD PTR ds:0x0
  89:	8b 47 0c             	mov    eax,DWORD PTR [edi+0xc]
  8c:	89 44 24 24          	mov    DWORD PTR [esp+0x24],eax
  90:	dd 5c 24 18          	fstp   QWORD PTR [esp+0x18]
  94:	8b 44 24 24          	mov    eax,DWORD PTR [esp+0x24]
  98:	31 ed                	xor    ebp,ebp
  9a:	89 74 24 28          	mov    DWORD PTR [esp+0x28],esi
  9e:	db 44 24 28          	fild   DWORD PTR [esp+0x28]
  a2:	dd 5c 24 10          	fstp   QWORD PTR [esp+0x10]
  a6:	8d 1c f0             	lea    ebx,[eax+esi*8]
  a9:	8d b4 26 00 00 00 00 	lea    esi,[esi+eiz*1+0x0]
  b0:	89 6c 24 28          	mov    DWORD PTR [esp+0x28],ebp
  b4:	83 c5 01             	add    ebp,0x1
  b7:	83 c3 08             	add    ebx,0x8
  ba:	db 44 24 28          	fild   DWORD PTR [esp+0x28]
  be:	dc 4c 24 18          	fmul   QWORD PTR [esp+0x18]
  c2:	dc 74 24 10          	fdiv   QWORD PTR [esp+0x10]
  c6:	d9 5c 24 2c          	fstp   DWORD PTR [esp+0x2c]
  ca:	d9 44 24 2c          	fld    DWORD PTR [esp+0x2c]
  ce:	dd 14 24             	fst    QWORD PTR [esp]
  d1:	d9 5c 24 0c          	fstp   DWORD PTR [esp+0xc]
  d5:	e8 00 00 00 00       	call   da <__ZN13FFTransformerIfE7FFTInitEii+0xda>
  da:	d9 5b f0             	fstp   DWORD PTR [ebx-0x10]
  dd:	d9 44 24 0c          	fld    DWORD PTR [esp+0xc]
  e1:	dd 1c 24             	fstp   QWORD PTR [esp]
  e4:	e8 00 00 00 00       	call   e9 <__ZN13FFTransformerIfE7FFTInitEii+0xe9>
  e9:	d9 5b f4             	fstp   DWORD PTR [ebx-0xc]
  ec:	39 f5                	cmp    ebp,esi
  ee:	75 c0                	jne    b0 <__ZN13FFTransformerIfE7FFTInitEii+0xb0>
  f0:	01 f6                	add    esi,esi
  f2:	39 74 24 50          	cmp    DWORD PTR [esp+0x50],esi
  f6:	7f 9c                	jg     94 <__ZN13FFTransformerIfE7FFTInitEii+0x94>
  f8:	8b 57 04             	mov    edx,DWORD PTR [edi+0x4]
  fb:	31 db                	xor    ebx,ebx
  fd:	0f bd c2             	bsr    eax,edx
 100:	83 f0 1f             	xor    eax,0x1f
 103:	83 c0 01             	add    eax,0x1
 106:	85 d2                	test   edx,edx
 108:	89 c5                	mov    ebp,eax
 10a:	7e 38                	jle    144 <__ZN13FFTransformerIfE7FFTInitEii+0x144>
 10c:	8d 74 26 00          	lea    esi,[esi+eiz*1+0x0]
 110:	89 d8                	mov    eax,ebx
 112:	ba 04 00 00 00       	mov    edx,0x4
 117:	0f b6 c8             	movzx  ecx,al
 11a:	31 c8                	xor    eax,ecx
 11c:	89 c6                	mov    esi,eax
 11e:	0f b6 81 00 00 00 00 	movzx  eax,BYTE PTR [ecx+0x0]
 125:	09 f0                	or     eax,esi
 127:	c1 c8 08             	ror    eax,0x8
 12a:	83 ea 01             	sub    edx,0x1
 12d:	75 e8                	jne    117 <__ZN13FFTransformerIfE7FFTInitEii+0x117>
 12f:	8b 54 24 20          	mov    edx,DWORD PTR [esp+0x20]
 133:	89 e9                	mov    ecx,ebp
 135:	0f c8                	bswap  eax
 137:	d3 e8                	shr    eax,cl
 139:	89 04 9a             	mov    DWORD PTR [edx+ebx*4],eax
 13c:	83 c3 01             	add    ebx,0x1
 13f:	3b 5f 04             	cmp    ebx,DWORD PTR [edi+0x4]
 142:	7c cc                	jl     110 <__ZN13FFTransformerIfE7FFTInitEii+0x110>
 144:	b8 01 00 00 00       	mov    eax,0x1
 149:	83 c4 3c             	add    esp,0x3c
 14c:	5b                   	pop    ebx
 14d:	5e                   	pop    esi
 14e:	5f                   	pop    edi
 14f:	5d                   	pop    ebp
 150:	c2 08 00             	ret    0x8
 153:	c7 04 24 ff ff ff ff 	mov    DWORD PTR [esp],0xffffffff
 15a:	e8 00 00 00 00       	call   15f <__ZN13FFTransformerIfE7FFTInitEii+0x15f>
 15f:	81 7c 24 50 00 00 c0 	cmp    DWORD PTR [esp+0x50],0x1fc00000
 166:	1f 
 167:	89 47 0c             	mov    DWORD PTR [edi+0xc],eax
 16a:	0f 86 ed fe ff ff    	jbe    5d <__ZN13FFTransformerIfE7FFTInitEii+0x5d>
 170:	c7 04 24 ff ff ff ff 	mov    DWORD PTR [esp],0xffffffff
 177:	e8 00 00 00 00       	call   17c <__ZN13FFTransformerIfE7FFTInitEii+0x17c>
 17c:	89 44 24 20          	mov    DWORD PTR [esp+0x20],eax
 180:	89 47 10             	mov    DWORD PTR [edi+0x10],eax
 183:	e9 f2 fe ff ff       	jmp    7a <__ZN13FFTransformerIfE7FFTInitEii+0x7a>
 188:	90                   	nop
 189:	90                   	nop
 18a:	90                   	nop
 18b:	90                   	nop
 18c:	90                   	nop
 18d:	90                   	nop
 18e:	90                   	nop
 18f:	90                   	nop

Disassembly of section .text$_ZN13FFTransformerIfEC2Eii:

00000000 <__ZN13FFTransformerIfEC2Eii>:
   0:	55                   	push   ebp
   1:	89 e5                	mov    ebp,esp
   3:	c7 01 08 00 00 00    	mov    DWORD PTR [ecx],0x8
   9:	c7 41 0c 00 00 00 00 	mov    DWORD PTR [ecx+0xc],0x0
  10:	c9                   	leave  
  11:	e9 00 00 00 00       	jmp    16 <__ZN13FFTransformerIfEC2Eii+0x16>
  16:	90                   	nop
  17:	90                   	nop
  18:	90                   	nop
  19:	90                   	nop
  1a:	90                   	nop
  1b:	90                   	nop
  1c:	90                   	nop
  1d:	90                   	nop
  1e:	90                   	nop
  1f:	90                   	nop

Disassembly of section .text$_ZN13FFTransformerIfEC1Eii:

00000000 <__ZN13FFTransformerIfEC1Eii>:
   0:	55                   	push   ebp
   1:	89 e5                	mov    ebp,esp
   3:	c7 01 08 00 00 00    	mov    DWORD PTR [ecx],0x8
   9:	c7 41 0c 00 00 00 00 	mov    DWORD PTR [ecx+0xc],0x0
  10:	c9                   	leave  
  11:	e9 00 00 00 00       	jmp    16 <__ZN13FFTransformerIfEC1Eii+0x16>
  16:	90                   	nop
  17:	90                   	nop
  18:	90                   	nop
  19:	90                   	nop
  1a:	90                   	nop
  1b:	90                   	nop
  1c:	90                   	nop
  1d:	90                   	nop
  1e:	90                   	nop
  1f:	90                   	nop

Disassembly of section .text$_ZN13FFTransformerIfE11FFTransformEP7ComplexIfE:

00000000 <__ZN13FFTransformerIfE11FFTransformEP7ComplexIfE>:
   0:	55                   	push   ebp
   1:	31 c0                	xor    eax,eax
   3:	89 e5                	mov    ebp,esp
   5:	57                   	push   edi
   6:	56                   	push   esi
   7:	53                   	push   ebx
   8:	89 cb                	mov    ebx,ecx
   a:	83 ec 20             	sub    esp,0x20
   d:	8b 51 04             	mov    edx,DWORD PTR [ecx+0x4]
  10:	85 d2                	test   edx,edx
  12:	0f 8e f2 00 00 00    	jle    10a <__ZN13FFTransformerIfE11FFTransformEP7ComplexIfE+0x10a>
  18:	8d 4a ff             	lea    ecx,[edx-0x1]
  1b:	85 d1                	test   ecx,edx
  1d:	0f 85 e7 00 00 00    	jne    10a <__ZN13FFTransformerIfE11FFTransformEP7ComplexIfE+0x10a>
  23:	8b 45 08             	mov    eax,DWORD PTR [ebp+0x8]
  26:	89 d9                	mov    ecx,ebx
  28:	89 54 24 04          	mov    DWORD PTR [esp+0x4],edx
  2c:	89 04 24             	mov    DWORD PTR [esp],eax
  2f:	e8 00 00 00 00       	call   34 <__ZN13FFTransformerIfE11FFTransformEP7ComplexIfE+0x34>
  34:	8b 73 04             	mov    esi,DWORD PTR [ebx+0x4]
  37:	c7 45 e0 1f 00 00 00 	mov    DWORD PTR [ebp-0x20],0x1f
  3e:	0f bd c6             	bsr    eax,esi
  41:	83 f0 1f             	xor    eax,0x1f
  44:	29 45 e0             	sub    DWORD PTR [ebp-0x20],eax
  47:	83 ec 08             	sub    esp,0x8
  4a:	8b 7d e0             	mov    edi,DWORD PTR [ebp-0x20]
  4d:	85 ff                	test   edi,edi
  4f:	0f 8e b0 00 00 00    	jle    105 <__ZN13FFTransformerIfE11FFTransformEP7ComplexIfE+0x105>
  55:	8b 43 0c             	mov    eax,DWORD PTR [ebx+0xc]
  58:	bf 01 00 00 00       	mov    edi,0x1
  5d:	c7 45 e4 00 00 00 00 	mov    DWORD PTR [ebp-0x1c],0x0
  64:	89 45 dc             	mov    DWORD PTR [ebp-0x24],eax
  67:	8b 45 dc             	mov    eax,DWORD PTR [ebp-0x24]
  6a:	89 fb                	mov    ebx,edi
  6c:	8d 0c 3f             	lea    ecx,[edi+edi*1]
  6f:	c1 e3 04             	shl    ebx,0x4
  72:	c7 45 f0 00 00 00 00 	mov    DWORD PTR [ebp-0x10],0x0
  79:	8d 04 f8             	lea    eax,[eax+edi*8]
  7c:	89 45 e8             	mov    DWORD PTR [ebp-0x18],eax
  7f:	8b 45 08             	mov    eax,DWORD PTR [ebp+0x8]
  82:	89 45 ec             	mov    DWORD PTR [ebp-0x14],eax
  85:	8b 45 e8             	mov    eax,DWORD PTR [ebp-0x18]
  88:	8b 55 f0             	mov    edx,DWORD PTR [ebp-0x10]
  8b:	d9 40 f8             	fld    DWORD PTR [eax-0x8]
  8e:	39 d6                	cmp    esi,edx
  90:	d9 40 fc             	fld    DWORD PTR [eax-0x4]
  93:	8b 45 ec             	mov    eax,DWORD PTR [ebp-0x14]
  96:	7e 45                	jle    dd <__ZN13FFTransformerIfE11FFTransformEP7ComplexIfE+0xdd>
  98:	d9 04 f8             	fld    DWORD PTR [eax+edi*8]
  9b:	01 ca                	add    edx,ecx
  9d:	d9 44 f8 04          	fld    DWORD PTR [eax+edi*8+0x4]
  a1:	d9 c1                	fld    st(1)
  a3:	d8 cc                	fmul   st,st(4)
  a5:	d9 c1                	fld    st(1)
  a7:	d8 cc                	fmul   st,st(4)
  a9:	de e9                	fsubrp st(1),st
  ab:	d9 ca                	fxch   st(2)
  ad:	d8 cb                	fmul   st,st(3)
  af:	d9 c9                	fxch   st(1)
  b1:	d8 cc                	fmul   st,st(4)
  b3:	de c1                	faddp  st(1),st
  b5:	d9 c1                	fld    st(1)
  b7:	d8 28                	fsubr  DWORD PTR [eax]
  b9:	d9 1c f8             	fstp   DWORD PTR [eax+edi*8]
  bc:	d9 c0                	fld    st(0)
  be:	d8 68 04             	fsubr  DWORD PTR [eax+0x4]
  c1:	d9 5c f8 04          	fstp   DWORD PTR [eax+edi*8+0x4]
  c5:	d9 c9                	fxch   st(1)
  c7:	d8 00                	fadd   DWORD PTR [eax]
  c9:	d9 18                	fstp   DWORD PTR [eax]
  cb:	d8 40 04             	fadd   DWORD PTR [eax+0x4]
  ce:	d9 58 04             	fstp   DWORD PTR [eax+0x4]
  d1:	01 d8                	add    eax,ebx
  d3:	39 d6                	cmp    esi,edx
  d5:	7f c1                	jg     98 <__ZN13FFTransformerIfE11FFTransformEP7ComplexIfE+0x98>
  d7:	dd d8                	fstp   st(0)
  d9:	dd d8                	fstp   st(0)
  db:	eb 04                	jmp    e1 <__ZN13FFTransformerIfE11FFTransformEP7ComplexIfE+0xe1>
  dd:	dd d8                	fstp   st(0)
  df:	dd d8                	fstp   st(0)
  e1:	83 45 f0 01          	add    DWORD PTR [ebp-0x10],0x1
  e5:	83 45 e8 08          	add    DWORD PTR [ebp-0x18],0x8
  e9:	83 45 ec 08          	add    DWORD PTR [ebp-0x14],0x8
  ed:	3b 7d f0             	cmp    edi,DWORD PTR [ebp-0x10]
  f0:	7f 93                	jg     85 <__ZN13FFTransformerIfE11FFTransformEP7ComplexIfE+0x85>
  f2:	83 45 e4 01          	add    DWORD PTR [ebp-0x1c],0x1
  f6:	8b 45 e0             	mov    eax,DWORD PTR [ebp-0x20]
  f9:	39 45 e4             	cmp    DWORD PTR [ebp-0x1c],eax
  fc:	74 07                	je     105 <__ZN13FFTransformerIfE11FFTransformEP7ComplexIfE+0x105>
  fe:	89 cf                	mov    edi,ecx
 100:	e9 62 ff ff ff       	jmp    67 <__ZN13FFTransformerIfE11FFTransformEP7ComplexIfE+0x67>
 105:	b8 01 00 00 00       	mov    eax,0x1
 10a:	8d 65 f4             	lea    esp,[ebp-0xc]
 10d:	5b                   	pop    ebx
 10e:	5e                   	pop    esi
 10f:	5f                   	pop    edi
 110:	5d                   	pop    ebp
 111:	c2 04 00             	ret    0x4
 114:	90                   	nop
 115:	90                   	nop
 116:	90                   	nop
 117:	90                   	nop
 118:	90                   	nop
 119:	90                   	nop
 11a:	90                   	nop
 11b:	90                   	nop
 11c:	90                   	nop
 11d:	90                   	nop
 11e:	90                   	nop
 11f:	90                   	nop

Disassembly of section .text$_ZN13FFTransformerIdE12isPowerOfTwoEj:

00000000 <__ZN13FFTransformerIdE12isPowerOfTwoEj>:
   0:	8b 44 24 04          	mov    eax,DWORD PTR [esp+0x4]
   4:	8d 50 ff             	lea    edx,[eax-0x1]
   7:	85 c2                	test   edx,eax
   9:	0f 94 c0             	sete   al
   c:	c2 04 00             	ret    0x4
   f:	90                   	nop

Disassembly of section .text$_ZN13FFTransformerIdE13getPowerOfTwoEj:

00000000 <__ZN13FFTransformerIdE13getPowerOfTwoEj>:
   0:	0f bd 54 24 04       	bsr    edx,DWORD PTR [esp+0x4]
   5:	b8 1f 00 00 00       	mov    eax,0x1f
   a:	83 f2 1f             	xor    edx,0x1f
   d:	29 d0                	sub    eax,edx
   f:	c2 04 00             	ret    0x4
  12:	90                   	nop
  13:	90                   	nop
  14:	90                   	nop
  15:	90                   	nop
  16:	90                   	nop
  17:	90                   	nop
  18:	90                   	nop
  19:	90                   	nop
  1a:	90                   	nop
  1b:	90                   	nop
  1c:	90                   	nop
  1d:	90                   	nop
  1e:	90                   	nop
  1f:	90                   	nop

Disassembly of section .text$_ZN13FFTransformerIdE15bitReverseInt32Ej:

00000000 <__ZN13FFTransformerIdE15bitReverseInt32Ej>:
   0:	53                   	push   ebx
   1:	8b 44 24 08          	mov    eax,DWORD PTR [esp+0x8]
   5:	ba 04 00 00 00       	mov    edx,0x4
   a:	0f b6 c8             	movzx  ecx,al
   d:	31 c8                	xor    eax,ecx
   f:	89 c3                	mov    ebx,eax
  11:	0f b6 81 00 00 00 00 	movzx  eax,BYTE PTR [ecx+0x0]
  18:	09 d8                	or     eax,ebx
  1a:	c1 c8 08             	ror    eax,0x8
  1d:	83 ea 01             	sub    edx,0x1
  20:	75 e8                	jne    a <__ZN13FFTransformerIdE15bitReverseInt32Ej+0xa>
  22:	0f c8                	bswap  eax
  24:	5b                   	pop    ebx
  25:	c2 04 00             	ret    0x4
  28:	90                   	nop
  29:	90                   	nop
  2a:	90                   	nop
  2b:	90                   	nop
  2c:	90                   	nop
  2d:	90                   	nop
  2e:	90                   	nop
  2f:	90                   	nop

Disassembly of section .text$_ZN13FFTransformerIdE12arrayShuffleEP7ComplexIdEi:

00000000 <__ZN13FFTransformerIdE12arrayShuffleEP7ComplexIdEi>:
   0:	55                   	push   ebp
   1:	57                   	push   edi
   2:	56                   	push   esi
   3:	53                   	push   ebx
   4:	8b 5c 24 18          	mov    ebx,DWORD PTR [esp+0x18]
   8:	8b 7c 24 14          	mov    edi,DWORD PTR [esp+0x14]
   c:	85 db                	test   ebx,ebx
   e:	7e 3f                	jle    4f <__ZN13FFTransformerIdE12arrayShuffleEP7ComplexIdEi+0x4f>
  10:	8b 71 10             	mov    esi,DWORD PTR [ecx+0x10]
  13:	89 fa                	mov    edx,edi
  15:	31 c0                	xor    eax,eax
  17:	8b 0c 86             	mov    ecx,DWORD PTR [esi+eax*4]
  1a:	39 c1                	cmp    ecx,eax
  1c:	7e 27                	jle    45 <__ZN13FFTransformerIdE12arrayShuffleEP7ComplexIdEi+0x45>
  1e:	c1 e1 04             	shl    ecx,0x4
  21:	dd 02                	fld    QWORD PTR [edx]
  23:	01 f9                	add    ecx,edi
  25:	dd 42 08             	fld    QWORD PTR [edx+0x8]
  28:	d9 c9                	fxch   st(1)
  2a:	8b 29                	mov    ebp,DWORD PTR [ecx]
  2c:	89 2a                	mov    DWORD PTR [edx],ebp
  2e:	8b 69 04             	mov    ebp,DWORD PTR [ecx+0x4]
  31:	89 6a 04             	mov    DWORD PTR [edx+0x4],ebp
  34:	8b 69 08             	mov    ebp,DWORD PTR [ecx+0x8]
  37:	89 6a 08             	mov    DWORD PTR [edx+0x8],ebp
  3a:	8b 69 0c             	mov    ebp,DWORD PTR [ecx+0xc]
  3d:	89 6a 0c             	mov    DWORD PTR [edx+0xc],ebp
  40:	dd 19                	fstp   QWORD PTR [ecx]
  42:	dd 59 08             	fstp   QWORD PTR [ecx+0x8]
  45:	83 c0 01             	add    eax,0x1
  48:	83 c2 10             	add    edx,0x10
  4b:	39 d8                	cmp    eax,ebx
  4d:	75 c8                	jne    17 <__ZN13FFTransformerIdE12arrayShuffleEP7ComplexIdEi+0x17>
  4f:	5b                   	pop    ebx
  50:	5e                   	pop    esi
  51:	5f                   	pop    edi
  52:	5d                   	pop    ebp
  53:	c2 08 00             	ret    0x8
  56:	90                   	nop
  57:	90                   	nop
  58:	90                   	nop
  59:	90                   	nop
  5a:	90                   	nop
  5b:	90                   	nop
  5c:	90                   	nop
  5d:	90                   	nop
  5e:	90                   	nop
  5f:	90                   	nop

Disassembly of section .text$_ZN13FFTransformerIdEC2Ev:

00000000 <__ZN13FFTransformerIdEC2Ev>:
   0:	c7 01 08 00 00 00    	mov    DWORD PTR [ecx],0x8
   6:	c7 41 0c 00 00 00 00 	mov    DWORD PTR [ecx+0xc],0x0
   d:	c3                   	ret    
   e:	90                   	nop
   f:	90                   	nop

Disassembly of section .text$_ZN13FFTransformerIdEC1Ev:

00000000 <__ZN13FFTransformerIdEC1Ev>:
   0:	c7 01 08 00 00 00    	mov    DWORD PTR [ecx],0x8
   6:	c7 41 0c 00 00 00 00 	mov    DWORD PTR [ecx+0xc],0x0
   d:	c3                   	ret    
   e:	90                   	nop
   f:	90                   	nop

Disassembly of section .text$_ZN13FFTransformerIdED2Ev:

00000000 <__ZN13FFTransformerIdED2Ev>:
   0:	53                   	push   ebx
   1:	89 cb                	mov    ebx,ecx
   3:	83 ec 18             	sub    esp,0x18
   6:	8b 41 0c             	mov    eax,DWORD PTR [ecx+0xc]
   9:	c7 01 08 00 00 00    	mov    DWORD PTR [ecx],0x8
   f:	85 c0                	test   eax,eax
  11:	74 08                	je     1b <__ZN13FFTransformerIdED2Ev+0x1b>
  13:	89 04 24             	mov    DWORD PTR [esp],eax
  16:	e8 00 00 00 00       	call   1b <__ZN13FFTransformerIdED2Ev+0x1b>
  1b:	8b 43 10             	mov    eax,DWORD PTR [ebx+0x10]
  1e:	85 c0                	test   eax,eax
  20:	74 08                	je     2a <__ZN13FFTransformerIdED2Ev+0x2a>
  22:	89 04 24             	mov    DWORD PTR [esp],eax
  25:	e8 00 00 00 00       	call   2a <__ZN13FFTransformerIdED2Ev+0x2a>
  2a:	83 c4 18             	add    esp,0x18
  2d:	5b                   	pop    ebx
  2e:	c3                   	ret    
  2f:	90                   	nop

Disassembly of section .text$_ZN13FFTransformerIdE7FFTInitEii:

00000000 <__ZN13FFTransformerIdE7FFTInitEii>:
   0:	55                   	push   ebp
   1:	31 c0                	xor    eax,eax
   3:	57                   	push   edi
   4:	56                   	push   esi
   5:	53                   	push   ebx
   6:	83 ec 3c             	sub    esp,0x3c
   9:	8b 54 24 50          	mov    edx,DWORD PTR [esp+0x50]
   d:	85 d2                	test   edx,edx
   f:	0f 8e 28 01 00 00    	jle    13d <__ZN13FFTransformerIdE7FFTInitEii+0x13d>
  15:	8b 54 24 50          	mov    edx,DWORD PTR [esp+0x50]
  19:	83 ea 01             	sub    edx,0x1
  1c:	85 54 24 50          	test   DWORD PTR [esp+0x50],edx
  20:	0f 85 17 01 00 00    	jne    13d <__ZN13FFTransformerIdE7FFTInitEii+0x13d>
  26:	8b 44 24 50          	mov    eax,DWORD PTR [esp+0x50]
  2a:	89 cf                	mov    edi,ecx
  2c:	8b 6c 24 54          	mov    ebp,DWORD PTR [esp+0x54]
  30:	89 41 04             	mov    DWORD PTR [ecx+0x4],eax
  33:	31 c0                	xor    eax,eax
  35:	85 ed                	test   ebp,ebp
  37:	0f 9f c0             	setg   al
  3a:	81 7c 24 50 00 00 f0 	cmp    DWORD PTR [esp+0x50],0x7f00000
  41:	07 
  42:	89 41 08             	mov    DWORD PTR [ecx+0x8],eax
  45:	0f 87 fc 00 00 00    	ja     147 <__ZN13FFTransformerIdE7FFTInitEii+0x147>
  4b:	8b 44 24 50          	mov    eax,DWORD PTR [esp+0x50]
  4f:	c1 e0 04             	shl    eax,0x4
  52:	89 04 24             	mov    DWORD PTR [esp],eax
  55:	e8 00 00 00 00       	call   5a <__ZN13FFTransformerIdE7FFTInitEii+0x5a>
  5a:	89 47 0c             	mov    DWORD PTR [edi+0xc],eax
  5d:	8b 44 24 50          	mov    eax,DWORD PTR [esp+0x50]
  61:	c1 e0 02             	shl    eax,0x2
  64:	89 04 24             	mov    DWORD PTR [esp],eax
  67:	e8 00 00 00 00       	call   6c <__ZN13FFTransformerIdE7FFTInitEii+0x6c>
  6c:	83 7c 24 50 01       	cmp    DWORD PTR [esp+0x50],0x1
  71:	89 44 24 24          	mov    DWORD PTR [esp+0x24],eax
  75:	89 47 10             	mov    DWORD PTR [edi+0x10],eax
  78:	74 76                	je     f0 <__ZN13FFTransformerIdE7FFTInitEii+0xf0>
  7a:	db 44 24 54          	fild   DWORD PTR [esp+0x54]
  7e:	be 01 00 00 00       	mov    esi,0x1
  83:	dc 0d 00 00 00 00    	fmul   QWORD PTR ds:0x0
  89:	8b 47 0c             	mov    eax,DWORD PTR [edi+0xc]
  8c:	89 44 24 28          	mov    DWORD PTR [esp+0x28],eax
  90:	dd 5c 24 18          	fstp   QWORD PTR [esp+0x18]
  94:	8d 9e ff ff ff 0f    	lea    ebx,[esi+0xfffffff]
  9a:	31 ed                	xor    ebp,ebp
  9c:	89 74 24 2c          	mov    DWORD PTR [esp+0x2c],esi
  a0:	c1 e3 04             	shl    ebx,0x4
  a3:	03 5c 24 28          	add    ebx,DWORD PTR [esp+0x28]
  a7:	db 44 24 2c          	fild   DWORD PTR [esp+0x2c]
  ab:	dd 5c 24 10          	fstp   QWORD PTR [esp+0x10]
  af:	90                   	nop
  b0:	89 6c 24 2c          	mov    DWORD PTR [esp+0x2c],ebp
  b4:	83 c5 01             	add    ebp,0x1
  b7:	83 c3 10             	add    ebx,0x10
  ba:	db 44 24 2c          	fild   DWORD PTR [esp+0x2c]
  be:	dc 4c 24 18          	fmul   QWORD PTR [esp+0x18]
  c2:	dc 74 24 10          	fdiv   QWORD PTR [esp+0x10]
  c6:	dd 14 24             	fst    QWORD PTR [esp]
  c9:	dd 5c 24 08          	fstp   QWORD PTR [esp+0x8]
  cd:	e8 00 00 00 00       	call   d2 <__ZN13FFTransformerIdE7FFTInitEii+0xd2>
  d2:	dd 5b f0             	fstp   QWORD PTR [ebx-0x10]
  d5:	dd 44 24 08          	fld    QWORD PTR [esp+0x8]
  d9:	dd 1c 24             	fstp   QWORD PTR [esp]
  dc:	e8 00 00 00 00       	call   e1 <__ZN13FFTransformerIdE7FFTInitEii+0xe1>
  e1:	dd 5b f8             	fstp   QWORD PTR [ebx-0x8]
  e4:	39 f5                	cmp    ebp,esi
  e6:	75 c8                	jne    b0 <__ZN13FFTransformerIdE7FFTInitEii+0xb0>
  e8:	01 f6                	add    esi,esi
  ea:	39 74 24 50          	cmp    DWORD PTR [esp+0x50],esi
  ee:	7f a4                	jg     94 <__ZN13FFTransformerIdE7FFTInitEii+0x94>
  f0:	8b 57 04             	mov    edx,DWORD PTR [edi+0x4]
  f3:	31 db                	xor    ebx,ebx
  f5:	0f bd c2             	bsr    eax,edx
  f8:	83 f0 1f             	xor    eax,0x1f
  fb:	83 c0 01             	add    eax,0x1
  fe:	85 d2                	test   edx,edx
 100:	89 c5                	mov    ebp,eax
 102:	7e 34                	jle    138 <__ZN13FFTransformerIdE7FFTInitEii+0x138>
 104:	89 d8                	mov    eax,ebx
 106:	ba 04 00 00 00       	mov    edx,0x4
 10b:	0f b6 c8             	movzx  ecx,al
 10e:	31 c8                	xor    eax,ecx
 110:	89 c6                	mov    esi,eax
 112:	0f b6 81 00 00 00 00 	movzx  eax,BYTE PTR [ecx+0x0]
 119:	09 f0                	or     eax,esi
 11b:	c1 c8 08             	ror    eax,0x8
 11e:	83 ea 01             	sub    edx,0x1
 121:	75 e8                	jne    10b <__ZN13FFTransformerIdE7FFTInitEii+0x10b>
 123:	8b 54 24 24          	mov    edx,DWORD PTR [esp+0x24]
 127:	89 e9                	mov    ecx,ebp
 129:	0f c8                	bswap  eax
 12b:	d3 e8                	shr    eax,cl
 12d:	89 04 9a             	mov    DWORD PTR [edx+ebx*4],eax
 130:	83 c3 01             	add    ebx,0x1
 133:	3b 5f 04             	cmp    ebx,DWORD PTR [edi+0x4]
 136:	7c cc                	jl     104 <__ZN13FFTransformerIdE7FFTInitEii+0x104>
 138:	b8 01 00 00 00       	mov    eax,0x1
 13d:	83 c4 3c             	add    esp,0x3c
 140:	5b                   	pop    ebx
 141:	5e                   	pop    esi
 142:	5f                   	pop    edi
 143:	5d                   	pop    ebp
 144:	c2 08 00             	ret    0x8
 147:	c7 04 24 ff ff ff ff 	mov    DWORD PTR [esp],0xffffffff
 14e:	e8 00 00 00 00       	call   153 <__ZN13FFTransformerIdE7FFTInitEii+0x153>
 153:	81 7c 24 50 00 00 c0 	cmp    DWORD PTR [esp+0x50],0x1fc00000
 15a:	1f 
 15b:	89 47 0c             	mov    DWORD PTR [edi+0xc],eax
 15e:	0f 86 f9 fe ff ff    	jbe    5d <__ZN13FFTransformerIdE7FFTInitEii+0x5d>
 164:	c7 04 24 ff ff ff ff 	mov    DWORD PTR [esp],0xffffffff
 16b:	e8 00 00 00 00       	call   170 <__ZN13FFTransformerIdE7FFTInitEii+0x170>
 170:	89 44 24 24          	mov    DWORD PTR [esp+0x24],eax
 174:	89 47 10             	mov    DWORD PTR [edi+0x10],eax
 177:	e9 fe fe ff ff       	jmp    7a <__ZN13FFTransformerIdE7FFTInitEii+0x7a>
 17c:	90                   	nop
 17d:	90                   	nop
 17e:	90                   	nop
 17f:	90                   	nop

Disassembly of section .text$_ZN13FFTransformerIdEC2Eii:

00000000 <__ZN13FFTransformerIdEC2Eii>:
   0:	55                   	push   ebp
   1:	89 e5                	mov    ebp,esp
   3:	c7 01 08 00 00 00    	mov    DWORD PTR [ecx],0x8
   9:	c7 41 0c 00 00 00 00 	mov    DWORD PTR [ecx+0xc],0x0
  10:	c9                   	leave  
  11:	e9 00 00 00 00       	jmp    16 <__ZN13FFTransformerIdEC2Eii+0x16>
  16:	90                   	nop
  17:	90                   	nop
  18:	90                   	nop
  19:	90                   	nop
  1a:	90                   	nop
  1b:	90                   	nop
  1c:	90                   	nop
  1d:	90                   	nop
  1e:	90                   	nop
  1f:	90                   	nop

Disassembly of section .text$_ZN13FFTransformerIdEC1Eii:

00000000 <__ZN13FFTransformerIdEC1Eii>:
   0:	55                   	push   ebp
   1:	89 e5                	mov    ebp,esp
   3:	c7 01 08 00 00 00    	mov    DWORD PTR [ecx],0x8
   9:	c7 41 0c 00 00 00 00 	mov    DWORD PTR [ecx+0xc],0x0
  10:	c9                   	leave  
  11:	e9 00 00 00 00       	jmp    16 <__ZN13FFTransformerIdEC1Eii+0x16>
  16:	90                   	nop
  17:	90                   	nop
  18:	90                   	nop
  19:	90                   	nop
  1a:	90                   	nop
  1b:	90                   	nop
  1c:	90                   	nop
  1d:	90                   	nop
  1e:	90                   	nop
  1f:	90                   	nop

Disassembly of section .text$_ZN13FFTransformerIdE11FFTransformEP7ComplexIdE:

00000000 <__ZN13FFTransformerIdE11FFTransformEP7ComplexIdE>:
   0:	55                   	push   ebp
   1:	31 c0                	xor    eax,eax
   3:	89 e5                	mov    ebp,esp
   5:	57                   	push   edi
   6:	56                   	push   esi
   7:	53                   	push   ebx
   8:	89 cb                	mov    ebx,ecx
   a:	83 ec 2c             	sub    esp,0x2c
   d:	8b 51 04             	mov    edx,DWORD PTR [ecx+0x4]
  10:	85 d2                	test   edx,edx
  12:	0f 8e 05 01 00 00    	jle    11d <__ZN13FFTransformerIdE11FFTransformEP7ComplexIdE+0x11d>
  18:	8d 4a ff             	lea    ecx,[edx-0x1]
  1b:	85 d1                	test   ecx,edx
  1d:	0f 85 fa 00 00 00    	jne    11d <__ZN13FFTransformerIdE11FFTransformEP7ComplexIdE+0x11d>
  23:	8b 45 08             	mov    eax,DWORD PTR [ebp+0x8]
  26:	89 d9                	mov    ecx,ebx
  28:	89 54 24 04          	mov    DWORD PTR [esp+0x4],edx
  2c:	89 04 24             	mov    DWORD PTR [esp],eax
  2f:	e8 00 00 00 00       	call   34 <__ZN13FFTransformerIdE11FFTransformEP7ComplexIdE+0x34>
  34:	8b 7b 04             	mov    edi,DWORD PTR [ebx+0x4]
  37:	c7 45 d8 1f 00 00 00 	mov    DWORD PTR [ebp-0x28],0x1f
  3e:	0f bd c7             	bsr    eax,edi
  41:	83 f0 1f             	xor    eax,0x1f
  44:	29 45 d8             	sub    DWORD PTR [ebp-0x28],eax
  47:	83 ec 08             	sub    esp,0x8
  4a:	8b 4d d8             	mov    ecx,DWORD PTR [ebp-0x28]
  4d:	85 c9                	test   ecx,ecx
  4f:	0f 8e c3 00 00 00    	jle    118 <__ZN13FFTransformerIdE11FFTransformEP7ComplexIdE+0x118>
  55:	8b 43 0c             	mov    eax,DWORD PTR [ebx+0xc]
  58:	c7 45 dc 00 00 00 00 	mov    DWORD PTR [ebp-0x24],0x0
  5f:	c7 45 e0 01 00 00 00 	mov    DWORD PTR [ebp-0x20],0x1
  66:	89 45 d4             	mov    DWORD PTR [ebp-0x2c],eax
  69:	8b 45 e0             	mov    eax,DWORD PTR [ebp-0x20]
  6c:	8b 75 d4             	mov    esi,DWORD PTR [ebp-0x2c]
  6f:	c7 45 ec 00 00 00 00 	mov    DWORD PTR [ebp-0x14],0x0
  76:	8d 90 ff ff ff 0f    	lea    edx,[eax+0xfffffff]
  7c:	c1 e2 04             	shl    edx,0x4
  7f:	01 d6                	add    esi,edx
  81:	83 c2 10             	add    edx,0x10
  84:	89 75 e8             	mov    DWORD PTR [ebp-0x18],esi
  87:	8b 75 08             	mov    esi,DWORD PTR [ebp+0x8]
  8a:	8d 1c 00             	lea    ebx,[eax+eax*1]
  8d:	89 75 e4             	mov    DWORD PTR [ebp-0x1c],esi
  90:	89 c6                	mov    esi,eax
  92:	c1 e6 05             	shl    esi,0x5
  95:	8b 45 e8             	mov    eax,DWORD PTR [ebp-0x18]
  98:	8b 4d ec             	mov    ecx,DWORD PTR [ebp-0x14]
  9b:	dd 00                	fld    QWORD PTR [eax]
  9d:	39 cf                	cmp    edi,ecx
  9f:	dd 40 08             	fld    QWORD PTR [eax+0x8]
  a2:	8b 45 e4             	mov    eax,DWORD PTR [ebp-0x1c]
  a5:	7e 45                	jle    ec <__ZN13FFTransformerIdE11FFTransformEP7ComplexIdE+0xec>
  a7:	dd 04 10             	fld    QWORD PTR [eax+edx*1]
  aa:	01 d9                	add    ecx,ebx
  ac:	dd 44 10 08          	fld    QWORD PTR [eax+edx*1+0x8]
  b0:	d9 c1                	fld    st(1)
  b2:	d8 cc                	fmul   st,st(4)
  b4:	d9 c1                	fld    st(1)
  b6:	d8 cc                	fmul   st,st(4)
  b8:	de e9                	fsubrp st(1),st
  ba:	d9 ca                	fxch   st(2)
  bc:	d8 cb                	fmul   st,st(3)
  be:	d9 c9                	fxch   st(1)
  c0:	d8 cc                	fmul   st,st(4)
  c2:	de c1                	faddp  st(1),st
  c4:	d9 c1                	fld    st(1)
  c6:	dc 28                	fsubr  QWORD PTR [eax]
  c8:	dd 1c 10             	fstp   QWORD PTR [eax+edx*1]
  cb:	d9 c0                	fld    st(0)
  cd:	dc 68 08             	fsubr  QWORD PTR [eax+0x8]
  d0:	dd 5c 10 08          	fstp   QWORD PTR [eax+edx*1+0x8]
  d4:	d9 c9                	fxch   st(1)
  d6:	dc 00                	fadd   QWORD PTR [eax]
  d8:	dd 18                	fstp   QWORD PTR [eax]
  da:	dc 40 08             	fadd   QWORD PTR [eax+0x8]
  dd:	dd 58 08             	fstp   QWORD PTR [eax+0x8]
  e0:	01 f0                	add    eax,esi
  e2:	39 cf                	cmp    edi,ecx
  e4:	7f c1                	jg     a7 <__ZN13FFTransformerIdE11FFTransformEP7ComplexIdE+0xa7>
  e6:	dd d8                	fstp   st(0)
  e8:	dd d8                	fstp   st(0)
  ea:	eb 04                	jmp    f0 <__ZN13FFTransformerIdE11FFTransformEP7ComplexIdE+0xf0>
  ec:	dd d8                	fstp   st(0)
  ee:	dd d8                	fstp   st(0)
  f0:	83 45 ec 01          	add    DWORD PTR [ebp-0x14],0x1
  f4:	8b 45 ec             	mov    eax,DWORD PTR [ebp-0x14]
  f7:	83 45 e8 10          	add    DWORD PTR [ebp-0x18],0x10
  fb:	83 45 e4 10          	add    DWORD PTR [ebp-0x1c],0x10
  ff:	39 45 e0             	cmp    DWORD PTR [ebp-0x20],eax
 102:	7f 91                	jg     95 <__ZN13FFTransformerIdE11FFTransformEP7ComplexIdE+0x95>
 104:	83 45 dc 01          	add    DWORD PTR [ebp-0x24],0x1
 108:	8b 45 d8             	mov    eax,DWORD PTR [ebp-0x28]
 10b:	39 45 dc             	cmp    DWORD PTR [ebp-0x24],eax
 10e:	74 08                	je     118 <__ZN13FFTransformerIdE11FFTransformEP7ComplexIdE+0x118>
 110:	89 5d e0             	mov    DWORD PTR [ebp-0x20],ebx
 113:	e9 51 ff ff ff       	jmp    69 <__ZN13FFTransformerIdE11FFTransformEP7ComplexIdE+0x69>
 118:	b8 01 00 00 00       	mov    eax,0x1
 11d:	8d 65 f4             	lea    esp,[ebp-0xc]
 120:	5b                   	pop    ebx
 121:	5e                   	pop    esi
 122:	5f                   	pop    edi
 123:	5d                   	pop    ebp
 124:	c2 04 00             	ret    0x4
 127:	90                   	nop
 128:	90                   	nop
 129:	90                   	nop
 12a:	90                   	nop
 12b:	90                   	nop
 12c:	90                   	nop
 12d:	90                   	nop
 12e:	90                   	nop
 12f:	90                   	nop

Disassembly of section .text$_ZN13FFTransformerIeE12isPowerOfTwoEj:

00000000 <__ZN13FFTransformerIeE12isPowerOfTwoEj>:
   0:	8b 44 24 04          	mov    eax,DWORD PTR [esp+0x4]
   4:	8d 50 ff             	lea    edx,[eax-0x1]
   7:	85 c2                	test   edx,eax
   9:	0f 94 c0             	sete   al
   c:	c2 04 00             	ret    0x4
   f:	90                   	nop

Disassembly of section .text$_ZN13FFTransformerIeE13getPowerOfTwoEj:

00000000 <__ZN13FFTransformerIeE13getPowerOfTwoEj>:
   0:	0f bd 54 24 04       	bsr    edx,DWORD PTR [esp+0x4]
   5:	b8 1f 00 00 00       	mov    eax,0x1f
   a:	83 f2 1f             	xor    edx,0x1f
   d:	29 d0                	sub    eax,edx
   f:	c2 04 00             	ret    0x4
  12:	90                   	nop
  13:	90                   	nop
  14:	90                   	nop
  15:	90                   	nop
  16:	90                   	nop
  17:	90                   	nop
  18:	90                   	nop
  19:	90                   	nop
  1a:	90                   	nop
  1b:	90                   	nop
  1c:	90                   	nop
  1d:	90                   	nop
  1e:	90                   	nop
  1f:	90                   	nop

Disassembly of section .text$_ZN13FFTransformerIeE15bitReverseInt32Ej:

00000000 <__ZN13FFTransformerIeE15bitReverseInt32Ej>:
   0:	53                   	push   ebx
   1:	8b 44 24 08          	mov    eax,DWORD PTR [esp+0x8]
   5:	ba 04 00 00 00       	mov    edx,0x4
   a:	0f b6 c8             	movzx  ecx,al
   d:	31 c8                	xor    eax,ecx
   f:	89 c3                	mov    ebx,eax
  11:	0f b6 81 00 00 00 00 	movzx  eax,BYTE PTR [ecx+0x0]
  18:	09 d8                	or     eax,ebx
  1a:	c1 c8 08             	ror    eax,0x8
  1d:	83 ea 01             	sub    edx,0x1
  20:	75 e8                	jne    a <__ZN13FFTransformerIeE15bitReverseInt32Ej+0xa>
  22:	0f c8                	bswap  eax
  24:	5b                   	pop    ebx
  25:	c2 04 00             	ret    0x4
  28:	90                   	nop
  29:	90                   	nop
  2a:	90                   	nop
  2b:	90                   	nop
  2c:	90                   	nop
  2d:	90                   	nop
  2e:	90                   	nop
  2f:	90                   	nop

Disassembly of section .text$_ZN13FFTransformerIeE12arrayShuffleEP7ComplexIeEi:

00000000 <__ZN13FFTransformerIeE12arrayShuffleEP7ComplexIeEi>:
   0:	55                   	push   ebp
   1:	57                   	push   edi
   2:	56                   	push   esi
   3:	53                   	push   ebx
   4:	8b 5c 24 18          	mov    ebx,DWORD PTR [esp+0x18]
   8:	8b 7c 24 14          	mov    edi,DWORD PTR [esp+0x14]
   c:	85 db                	test   ebx,ebx
   e:	7e 4c                	jle    5c <__ZN13FFTransformerIeE12arrayShuffleEP7ComplexIeEi+0x5c>
  10:	8b 71 10             	mov    esi,DWORD PTR [ecx+0x10]
  13:	89 f8                	mov    eax,edi
  15:	31 d2                	xor    edx,edx
  17:	8b 0c 96             	mov    ecx,DWORD PTR [esi+edx*4]
  1a:	39 d1                	cmp    ecx,edx
  1c:	7e 34                	jle    52 <__ZN13FFTransformerIeE12arrayShuffleEP7ComplexIeEi+0x52>
  1e:	8d 0c 49             	lea    ecx,[ecx+ecx*2]
  21:	8d 0c cf             	lea    ecx,[edi+ecx*8]
  24:	8b 29                	mov    ebp,DWORD PTR [ecx]
  26:	db 28                	fld    TBYTE PTR [eax]
  28:	89 28                	mov    DWORD PTR [eax],ebp
  2a:	8b 69 04             	mov    ebp,DWORD PTR [ecx+0x4]
  2d:	db 68 0c             	fld    TBYTE PTR [eax+0xc]
  30:	d9 c9                	fxch   st(1)
  32:	89 68 04             	mov    DWORD PTR [eax+0x4],ebp
  35:	8b 69 08             	mov    ebp,DWORD PTR [ecx+0x8]
  38:	89 68 08             	mov    DWORD PTR [eax+0x8],ebp
  3b:	8b 69 0c             	mov    ebp,DWORD PTR [ecx+0xc]
  3e:	89 68 0c             	mov    DWORD PTR [eax+0xc],ebp
  41:	8b 69 10             	mov    ebp,DWORD PTR [ecx+0x10]
  44:	89 68 10             	mov    DWORD PTR [eax+0x10],ebp
  47:	8b 69 14             	mov    ebp,DWORD PTR [ecx+0x14]
  4a:	89 68 14             	mov    DWORD PTR [eax+0x14],ebp
  4d:	db 39                	fstp   TBYTE PTR [ecx]
  4f:	db 79 0c             	fstp   TBYTE PTR [ecx+0xc]
  52:	83 c2 01             	add    edx,0x1
  55:	83 c0 18             	add    eax,0x18
  58:	39 da                	cmp    edx,ebx
  5a:	75 bb                	jne    17 <__ZN13FFTransformerIeE12arrayShuffleEP7ComplexIeEi+0x17>
  5c:	5b                   	pop    ebx
  5d:	5e                   	pop    esi
  5e:	5f                   	pop    edi
  5f:	5d                   	pop    ebp
  60:	c2 08 00             	ret    0x8
  63:	90                   	nop
  64:	90                   	nop
  65:	90                   	nop
  66:	90                   	nop
  67:	90                   	nop
  68:	90                   	nop
  69:	90                   	nop
  6a:	90                   	nop
  6b:	90                   	nop
  6c:	90                   	nop
  6d:	90                   	nop
  6e:	90                   	nop
  6f:	90                   	nop

Disassembly of section .text$_ZN13FFTransformerIeEC2Ev:

00000000 <__ZN13FFTransformerIeEC2Ev>:
   0:	c7 01 08 00 00 00    	mov    DWORD PTR [ecx],0x8
   6:	c7 41 0c 00 00 00 00 	mov    DWORD PTR [ecx+0xc],0x0
   d:	c3                   	ret    
   e:	90                   	nop
   f:	90                   	nop

Disassembly of section .text$_ZN13FFTransformerIeEC1Ev:

00000000 <__ZN13FFTransformerIeEC1Ev>:
   0:	c7 01 08 00 00 00    	mov    DWORD PTR [ecx],0x8
   6:	c7 41 0c 00 00 00 00 	mov    DWORD PTR [ecx+0xc],0x0
   d:	c3                   	ret    
   e:	90                   	nop
   f:	90                   	nop

Disassembly of section .text$_ZN13FFTransformerIeED2Ev:

00000000 <__ZN13FFTransformerIeED2Ev>:
   0:	53                   	push   ebx
   1:	89 cb                	mov    ebx,ecx
   3:	83 ec 18             	sub    esp,0x18
   6:	8b 41 0c             	mov    eax,DWORD PTR [ecx+0xc]
   9:	c7 01 08 00 00 00    	mov    DWORD PTR [ecx],0x8
   f:	85 c0                	test   eax,eax
  11:	74 08                	je     1b <__ZN13FFTransformerIeED2Ev+0x1b>
  13:	89 04 24             	mov    DWORD PTR [esp],eax
  16:	e8 00 00 00 00       	call   1b <__ZN13FFTransformerIeED2Ev+0x1b>
  1b:	8b 43 10             	mov    eax,DWORD PTR [ebx+0x10]
  1e:	85 c0                	test   eax,eax
  20:	74 08                	je     2a <__ZN13FFTransformerIeED2Ev+0x2a>
  22:	89 04 24             	mov    DWORD PTR [esp],eax
  25:	e8 00 00 00 00       	call   2a <__ZN13FFTransformerIeED2Ev+0x2a>
  2a:	83 c4 18             	add    esp,0x18
  2d:	5b                   	pop    ebx
  2e:	c3                   	ret    
  2f:	90                   	nop

Disassembly of section .text$_ZN13FFTransformerIeE7FFTInitEii:

00000000 <__ZN13FFTransformerIeE7FFTInitEii>:
   0:	55                   	push   ebp
   1:	31 c0                	xor    eax,eax
   3:	57                   	push   edi
   4:	56                   	push   esi
   5:	53                   	push   ebx
   6:	83 ec 3c             	sub    esp,0x3c
   9:	8b 74 24 50          	mov    esi,DWORD PTR [esp+0x50]
   d:	85 f6                	test   esi,esi
   f:	0f 8e 28 01 00 00    	jle    13d <__ZN13FFTransformerIeE7FFTInitEii+0x13d>
  15:	8b 54 24 50          	mov    edx,DWORD PTR [esp+0x50]
  19:	83 ea 01             	sub    edx,0x1
  1c:	85 54 24 50          	test   DWORD PTR [esp+0x50],edx
  20:	0f 85 17 01 00 00    	jne    13d <__ZN13FFTransformerIeE7FFTInitEii+0x13d>
  26:	8b 44 24 50          	mov    eax,DWORD PTR [esp+0x50]
  2a:	89 cf                	mov    edi,ecx
  2c:	8b 5c 24 54          	mov    ebx,DWORD PTR [esp+0x54]
  30:	89 41 04             	mov    DWORD PTR [ecx+0x4],eax
  33:	31 c0                	xor    eax,eax
  35:	85 db                	test   ebx,ebx
  37:	0f 9f c0             	setg   al
  3a:	81 7c 24 50 00 00 50 	cmp    DWORD PTR [esp+0x50],0x5500000
  41:	05 
  42:	89 41 08             	mov    DWORD PTR [ecx+0x8],eax
  45:	0f 87 fc 00 00 00    	ja     147 <__ZN13FFTransformerIeE7FFTInitEii+0x147>
  4b:	8b 44 24 50          	mov    eax,DWORD PTR [esp+0x50]
  4f:	8d 04 40             	lea    eax,[eax+eax*2]
  52:	c1 e0 03             	shl    eax,0x3
  55:	89 04 24             	mov    DWORD PTR [esp],eax
  58:	e8 00 00 00 00       	call   5d <__ZN13FFTransformerIeE7FFTInitEii+0x5d>
  5d:	89 47 0c             	mov    DWORD PTR [edi+0xc],eax
  60:	8b 44 24 50          	mov    eax,DWORD PTR [esp+0x50]
  64:	c1 e0 02             	shl    eax,0x2
  67:	89 04 24             	mov    DWORD PTR [esp],eax
  6a:	e8 00 00 00 00       	call   6f <__ZN13FFTransformerIeE7FFTInitEii+0x6f>
  6f:	83 7c 24 50 01       	cmp    DWORD PTR [esp+0x50],0x1
  74:	89 44 24 24          	mov    DWORD PTR [esp+0x24],eax
  78:	89 47 10             	mov    DWORD PTR [edi+0x10],eax
  7b:	74 73                	je     f0 <__ZN13FFTransformerIeE7FFTInitEii+0xf0>
  7d:	db 44 24 54          	fild   DWORD PTR [esp+0x54]
  81:	be 01 00 00 00       	mov    esi,0x1
  86:	dc 0d 00 00 00 00    	fmul   QWORD PTR ds:0x0
  8c:	8b 47 0c             	mov    eax,DWORD PTR [edi+0xc]
  8f:	89 44 24 28          	mov    DWORD PTR [esp+0x28],eax
  93:	dd 5c 24 18          	fstp   QWORD PTR [esp+0x18]
  97:	8b 54 24 28          	mov    edx,DWORD PTR [esp+0x28]
  9b:	8d 04 76             	lea    eax,[esi+esi*2]
  9e:	31 ed                	xor    ebp,ebp
  a0:	89 74 24 2c          	mov    DWORD PTR [esp+0x2c],esi
  a4:	db 44 24 2c          	fild   DWORD PTR [esp+0x2c]
  a8:	dd 5c 24 10          	fstp   QWORD PTR [esp+0x10]
  ac:	8d 1c c2             	lea    ebx,[edx+eax*8]
  af:	90                   	nop
  b0:	89 6c 24 2c          	mov    DWORD PTR [esp+0x2c],ebp
  b4:	83 c5 01             	add    ebp,0x1
  b7:	83 c3 18             	add    ebx,0x18
  ba:	db 44 24 2c          	fild   DWORD PTR [esp+0x2c]
  be:	dc 4c 24 18          	fmul   QWORD PTR [esp+0x18]
  c2:	dc 74 24 10          	fdiv   QWORD PTR [esp+0x10]
  c6:	dd 14 24             	fst    QWORD PTR [esp]
  c9:	dd 5c 24 08          	fstp   QWORD PTR [esp+0x8]
  cd:	e8 00 00 00 00       	call   d2 <__ZN13FFTransformerIeE7FFTInitEii+0xd2>
  d2:	db 7b d0             	fstp   TBYTE PTR [ebx-0x30]
  d5:	dd 44 24 08          	fld    QWORD PTR [esp+0x8]
  d9:	dd 1c 24             	fstp   QWORD PTR [esp]
  dc:	e8 00 00 00 00       	call   e1 <__ZN13FFTransformerIeE7FFTInitEii+0xe1>
  e1:	db 7b dc             	fstp   TBYTE PTR [ebx-0x24]
  e4:	39 f5                	cmp    ebp,esi
  e6:	75 c8                	jne    b0 <__ZN13FFTransformerIeE7FFTInitEii+0xb0>
  e8:	01 f6                	add    esi,esi
  ea:	39 74 24 50          	cmp    DWORD PTR [esp+0x50],esi
  ee:	7f a7                	jg     97 <__ZN13FFTransformerIeE7FFTInitEii+0x97>
  f0:	8b 57 04             	mov    edx,DWORD PTR [edi+0x4]
  f3:	31 db                	xor    ebx,ebx
  f5:	0f bd c2             	bsr    eax,edx
  f8:	83 f0 1f             	xor    eax,0x1f
  fb:	83 c0 01             	add    eax,0x1
  fe:	85 d2                	test   edx,edx
 100:	89 c5                	mov    ebp,eax
 102:	7e 34                	jle    138 <__ZN13FFTransformerIeE7FFTInitEii+0x138>
 104:	89 d8                	mov    eax,ebx
 106:	ba 04 00 00 00       	mov    edx,0x4
 10b:	0f b6 c8             	movzx  ecx,al
 10e:	31 c8                	xor    eax,ecx
 110:	89 c6                	mov    esi,eax
 112:	0f b6 81 00 00 00 00 	movzx  eax,BYTE PTR [ecx+0x0]
 119:	09 f0                	or     eax,esi
 11b:	c1 c8 08             	ror    eax,0x8
 11e:	83 ea 01             	sub    edx,0x1
 121:	75 e8                	jne    10b <__ZN13FFTransformerIeE7FFTInitEii+0x10b>
 123:	8b 54 24 24          	mov    edx,DWORD PTR [esp+0x24]
 127:	89 e9                	mov    ecx,ebp
 129:	0f c8                	bswap  eax
 12b:	d3 e8                	shr    eax,cl
 12d:	89 04 9a             	mov    DWORD PTR [edx+ebx*4],eax
 130:	83 c3 01             	add    ebx,0x1
 133:	3b 5f 04             	cmp    ebx,DWORD PTR [edi+0x4]
 136:	7c cc                	jl     104 <__ZN13FFTransformerIeE7FFTInitEii+0x104>
 138:	b8 01 00 00 00       	mov    eax,0x1
 13d:	83 c4 3c             	add    esp,0x3c
 140:	5b                   	pop    ebx
 141:	5e                   	pop    esi
 142:	5f                   	pop    edi
 143:	5d                   	pop    ebp
 144:	c2 08 00             	ret    0x8
 147:	c7 04 24 ff ff ff ff 	mov    DWORD PTR [esp],0xffffffff
 14e:	e8 00 00 00 00       	call   153 <__ZN13FFTransformerIeE7FFTInitEii+0x153>
 153:	81 7c 24 50 00 00 c0 	cmp    DWORD PTR [esp+0x50],0x1fc00000
 15a:	1f 
 15b:	89 47 0c             	mov    DWORD PTR [edi+0xc],eax
 15e:	0f 86 fc fe ff ff    	jbe    60 <__ZN13FFTransformerIeE7FFTInitEii+0x60>
 164:	c7 04 24 ff ff ff ff 	mov    DWORD PTR [esp],0xffffffff
 16b:	e8 00 00 00 00       	call   170 <__ZN13FFTransformerIeE7FFTInitEii+0x170>
 170:	89 44 24 24          	mov    DWORD PTR [esp+0x24],eax
 174:	89 47 10             	mov    DWORD PTR [edi+0x10],eax
 177:	e9 01 ff ff ff       	jmp    7d <__ZN13FFTransformerIeE7FFTInitEii+0x7d>
 17c:	90                   	nop
 17d:	90                   	nop
 17e:	90                   	nop
 17f:	90                   	nop

Disassembly of section .text$_ZN13FFTransformerIeEC2Eii:

00000000 <__ZN13FFTransformerIeEC2Eii>:
   0:	55                   	push   ebp
   1:	89 e5                	mov    ebp,esp
   3:	c7 01 08 00 00 00    	mov    DWORD PTR [ecx],0x8
   9:	c7 41 0c 00 00 00 00 	mov    DWORD PTR [ecx+0xc],0x0
  10:	c9                   	leave  
  11:	e9 00 00 00 00       	jmp    16 <__ZN13FFTransformerIeEC2Eii+0x16>
  16:	90                   	nop
  17:	90                   	nop
  18:	90                   	nop
  19:	90                   	nop
  1a:	90                   	nop
  1b:	90                   	nop
  1c:	90                   	nop
  1d:	90                   	nop
  1e:	90                   	nop
  1f:	90                   	nop

Disassembly of section .text$_ZN13FFTransformerIeEC1Eii:

00000000 <__ZN13FFTransformerIeEC1Eii>:
   0:	55                   	push   ebp
   1:	89 e5                	mov    ebp,esp
   3:	c7 01 08 00 00 00    	mov    DWORD PTR [ecx],0x8
   9:	c7 41 0c 00 00 00 00 	mov    DWORD PTR [ecx+0xc],0x0
  10:	c9                   	leave  
  11:	e9 00 00 00 00       	jmp    16 <__ZN13FFTransformerIeEC1Eii+0x16>
  16:	90                   	nop
  17:	90                   	nop
  18:	90                   	nop
  19:	90                   	nop
  1a:	90                   	nop
  1b:	90                   	nop
  1c:	90                   	nop
  1d:	90                   	nop
  1e:	90                   	nop
  1f:	90                   	nop

Disassembly of section .text$_ZN13FFTransformerIeE11FFTransformEP7ComplexIeE:

00000000 <__ZN13FFTransformerIeE11FFTransformEP7ComplexIeE>:
   0:	55                   	push   ebp
   1:	31 c0                	xor    eax,eax
   3:	89 e5                	mov    ebp,esp
   5:	57                   	push   edi
   6:	56                   	push   esi
   7:	53                   	push   ebx
   8:	89 cb                	mov    ebx,ecx
   a:	83 ec 28             	sub    esp,0x28
   d:	8b 51 04             	mov    edx,DWORD PTR [ecx+0x4]
  10:	85 d2                	test   edx,edx
  12:	0f 8e 15 01 00 00    	jle    12d <__ZN13FFTransformerIeE11FFTransformEP7ComplexIeE+0x12d>
  18:	8d 4a ff             	lea    ecx,[edx-0x1]
  1b:	85 d1                	test   ecx,edx
  1d:	0f 85 0a 01 00 00    	jne    12d <__ZN13FFTransformerIeE11FFTransformEP7ComplexIeE+0x12d>
  23:	8b 45 08             	mov    eax,DWORD PTR [ebp+0x8]
  26:	89 d9                	mov    ecx,ebx
  28:	89 54 24 04          	mov    DWORD PTR [esp+0x4],edx
  2c:	89 04 24             	mov    DWORD PTR [esp],eax
  2f:	e8 00 00 00 00       	call   34 <__ZN13FFTransformerIeE11FFTransformEP7ComplexIeE+0x34>
  34:	8b 7b 04             	mov    edi,DWORD PTR [ebx+0x4]
  37:	c7 45 d8 1f 00 00 00 	mov    DWORD PTR [ebp-0x28],0x1f
  3e:	0f bd c7             	bsr    eax,edi
  41:	83 f0 1f             	xor    eax,0x1f
  44:	29 45 d8             	sub    DWORD PTR [ebp-0x28],eax
  47:	83 ec 08             	sub    esp,0x8
  4a:	8b 45 d8             	mov    eax,DWORD PTR [ebp-0x28]
  4d:	85 c0                	test   eax,eax
  4f:	0f 8e d3 00 00 00    	jle    128 <__ZN13FFTransformerIeE11FFTransformEP7ComplexIeE+0x128>
  55:	8b 43 0c             	mov    eax,DWORD PTR [ebx+0xc]
  58:	c7 45 dc 00 00 00 00 	mov    DWORD PTR [ebp-0x24],0x0
  5f:	c7 45 e4 01 00 00 00 	mov    DWORD PTR [ebp-0x1c],0x1
  66:	89 45 d4             	mov    DWORD PTR [ebp-0x2c],eax
  69:	8b 5d e4             	mov    ebx,DWORD PTR [ebp-0x1c]
  6c:	8b 4d d4             	mov    ecx,DWORD PTR [ebp-0x2c]
  6f:	c7 45 f0 00 00 00 00 	mov    DWORD PTR [ebp-0x10],0x0
  76:	89 d8                	mov    eax,ebx
  78:	8d 34 1b             	lea    esi,[ebx+ebx*1]
  7b:	01 f0                	add    eax,esi
  7d:	c1 e0 03             	shl    eax,0x3
  80:	01 c1                	add    ecx,eax
  82:	89 45 e0             	mov    DWORD PTR [ebp-0x20],eax
  85:	8b 45 08             	mov    eax,DWORD PTR [ebp+0x8]
  88:	8d 1c 9e             	lea    ebx,[esi+ebx*4]
  8b:	89 4d e8             	mov    DWORD PTR [ebp-0x18],ecx
  8e:	c1 e3 03             	shl    ebx,0x3
  91:	89 45 ec             	mov    DWORD PTR [ebp-0x14],eax
  94:	8b 45 e8             	mov    eax,DWORD PTR [ebp-0x18]
  97:	8b 4d ec             	mov    ecx,DWORD PTR [ebp-0x14]
  9a:	8b 55 e0             	mov    edx,DWORD PTR [ebp-0x20]
  9d:	db 68 e8             	fld    TBYTE PTR [eax-0x18]
  a0:	01 ca                	add    edx,ecx
  a2:	db 68 f4             	fld    TBYTE PTR [eax-0xc]
  a5:	89 c8                	mov    eax,ecx
  a7:	8b 4d f0             	mov    ecx,DWORD PTR [ebp-0x10]
  aa:	39 cf                	cmp    edi,ecx
  ac:	7e 49                	jle    f7 <__ZN13FFTransformerIeE11FFTransformEP7ComplexIeE+0xf7>
  ae:	66 90                	xchg   ax,ax
  b0:	db 2a                	fld    TBYTE PTR [edx]
  b2:	01 f1                	add    ecx,esi
  b4:	db 6a 0c             	fld    TBYTE PTR [edx+0xc]
  b7:	d9 c1                	fld    st(1)
  b9:	d8 cc                	fmul   st,st(4)
  bb:	d9 c1                	fld    st(1)
  bd:	d8 cc                	fmul   st,st(4)
  bf:	de e9                	fsubrp st(1),st
  c1:	d9 ca                	fxch   st(2)
  c3:	d8 cb                	fmul   st,st(3)
  c5:	d9 c9                	fxch   st(1)
  c7:	d8 cc                	fmul   st,st(4)
  c9:	de c1                	faddp  st(1),st
  cb:	db 28                	fld    TBYTE PTR [eax]
  cd:	d8 e2                	fsub   st,st(2)
  cf:	db 3a                	fstp   TBYTE PTR [edx]
  d1:	db 68 0c             	fld    TBYTE PTR [eax+0xc]
  d4:	d8 e1                	fsub   st,st(1)
  d6:	db 7a 0c             	fstp   TBYTE PTR [edx+0xc]
  d9:	01 da                	add    edx,ebx
  db:	db 28                	fld    TBYTE PTR [eax]
  dd:	de c2                	faddp  st(2),st
  df:	d9 c9                	fxch   st(1)
  e1:	db 38                	fstp   TBYTE PTR [eax]
  e3:	db 68 0c             	fld    TBYTE PTR [eax+0xc]
  e6:	de c1                	faddp  st(1),st
  e8:	db 78 0c             	fstp   TBYTE PTR [eax+0xc]
  eb:	01 d8                	add    eax,ebx
  ed:	39 cf                	cmp    edi,ecx
  ef:	7f bf                	jg     b0 <__ZN13FFTransformerIeE11FFTransformEP7ComplexIeE+0xb0>
  f1:	dd d8                	fstp   st(0)
  f3:	dd d8                	fstp   st(0)
  f5:	eb 09                	jmp    100 <__ZN13FFTransformerIeE11FFTransformEP7ComplexIeE+0x100>
  f7:	dd d8                	fstp   st(0)
  f9:	dd d8                	fstp   st(0)
  fb:	90                   	nop
  fc:	8d 74 26 00          	lea    esi,[esi+eiz*1+0x0]
 100:	83 45 f0 01          	add    DWORD PTR [ebp-0x10],0x1
 104:	8b 45 f0             	mov    eax,DWORD PTR [ebp-0x10]
 107:	83 45 e8 18          	add    DWORD PTR [ebp-0x18],0x18
 10b:	83 45 ec 18          	add    DWORD PTR [ebp-0x14],0x18
 10f:	39 45 e4             	cmp    DWORD PTR [ebp-0x1c],eax
 112:	7f 80                	jg     94 <__ZN13FFTransformerIeE11FFTransformEP7ComplexIeE+0x94>
 114:	83 45 dc 01          	add    DWORD PTR [ebp-0x24],0x1
 118:	8b 45 d8             	mov    eax,DWORD PTR [ebp-0x28]
 11b:	39 45 dc             	cmp    DWORD PTR [ebp-0x24],eax
 11e:	74 08                	je     128 <__ZN13FFTransformerIeE11FFTransformEP7ComplexIeE+0x128>
 120:	89 75 e4             	mov    DWORD PTR [ebp-0x1c],esi
 123:	e9 41 ff ff ff       	jmp    69 <__ZN13FFTransformerIeE11FFTransformEP7ComplexIeE+0x69>
 128:	b8 01 00 00 00       	mov    eax,0x1
 12d:	8d 65 f4             	lea    esp,[ebp-0xc]
 130:	5b                   	pop    ebx
 131:	5e                   	pop    esi
 132:	5f                   	pop    edi
 133:	5d                   	pop    ebp
 134:	c2 04 00             	ret    0x4
 137:	90                   	nop
 138:	90                   	nop
 139:	90                   	nop
 13a:	90                   	nop
 13b:	90                   	nop
 13c:	90                   	nop
 13d:	90                   	nop
 13e:	90                   	nop
 13f:	90                   	nop
