
obj/release/FFTransformer.o:     file format pe-i386


Disassembly of section .text$_ZN13FFTransformerIfED1Ev:

00000000 <__ZN13FFTransformerIfED1Ev>:
   0:	c7 01 08 00 00 00    	mov    DWORD PTR [ecx],0x8
   6:	c3                   	ret    
   7:	90                   	nop
   8:	90                   	nop
   9:	90                   	nop
   a:	90                   	nop
   b:	90                   	nop
   c:	90                   	nop
   d:	90                   	nop
   e:	90                   	nop
   f:	90                   	nop

Disassembly of section .text$_ZN13FFTransformerIdED1Ev:

00000000 <__ZN13FFTransformerIdED1Ev>:
   0:	c7 01 08 00 00 00    	mov    DWORD PTR [ecx],0x8
   6:	c3                   	ret    
   7:	90                   	nop
   8:	90                   	nop
   9:	90                   	nop
   a:	90                   	nop
   b:	90                   	nop
   c:	90                   	nop
   d:	90                   	nop
   e:	90                   	nop
   f:	90                   	nop

Disassembly of section .text$_ZN13FFTransformerIeED1Ev:

00000000 <__ZN13FFTransformerIeED1Ev>:
   0:	c7 01 08 00 00 00    	mov    DWORD PTR [ecx],0x8
   6:	c3                   	ret    
   7:	90                   	nop
   8:	90                   	nop
   9:	90                   	nop
   a:	90                   	nop
   b:	90                   	nop
   c:	90                   	nop
   d:	90                   	nop
   e:	90                   	nop
   f:	90                   	nop

Disassembly of section .text$_ZN13FFTransformerIfED0Ev:

00000000 <__ZN13FFTransformerIfED0Ev>:
   0:	83 ec 1c             	sub    esp,0x1c
   3:	89 0c 24             	mov    DWORD PTR [esp],ecx
   6:	c7 01 08 00 00 00    	mov    DWORD PTR [ecx],0x8
   c:	e8 00 00 00 00       	call   11 <__ZN13FFTransformerIfED0Ev+0x11>
  11:	83 c4 1c             	add    esp,0x1c
  14:	c3                   	ret    
  15:	90                   	nop
  16:	90                   	nop
  17:	90                   	nop
  18:	90                   	nop
  19:	90                   	nop
  1a:	90                   	nop
  1b:	90                   	nop
  1c:	90                   	nop
  1d:	90                   	nop
  1e:	90                   	nop
  1f:	90                   	nop

Disassembly of section .text$_ZN13FFTransformerIdED0Ev:

00000000 <__ZN13FFTransformerIdED0Ev>:
   0:	83 ec 1c             	sub    esp,0x1c
   3:	89 0c 24             	mov    DWORD PTR [esp],ecx
   6:	c7 01 08 00 00 00    	mov    DWORD PTR [ecx],0x8
   c:	e8 00 00 00 00       	call   11 <__ZN13FFTransformerIdED0Ev+0x11>
  11:	83 c4 1c             	add    esp,0x1c
  14:	c3                   	ret    
  15:	90                   	nop
  16:	90                   	nop
  17:	90                   	nop
  18:	90                   	nop
  19:	90                   	nop
  1a:	90                   	nop
  1b:	90                   	nop
  1c:	90                   	nop
  1d:	90                   	nop
  1e:	90                   	nop
  1f:	90                   	nop

Disassembly of section .text$_ZN13FFTransformerIeED0Ev:

00000000 <__ZN13FFTransformerIeED0Ev>:
   0:	83 ec 1c             	sub    esp,0x1c
   3:	89 0c 24             	mov    DWORD PTR [esp],ecx
   6:	c7 01 08 00 00 00    	mov    DWORD PTR [ecx],0x8
   c:	e8 00 00 00 00       	call   11 <__ZN13FFTransformerIeED0Ev+0x11>
  11:	83 c4 1c             	add    esp,0x1c
  14:	c3                   	ret    
  15:	90                   	nop
  16:	90                   	nop
  17:	90                   	nop
  18:	90                   	nop
  19:	90                   	nop
  1a:	90                   	nop
  1b:	90                   	nop
  1c:	90                   	nop
  1d:	90                   	nop
  1e:	90                   	nop
  1f:	90                   	nop

Disassembly of section .text$_ZN13FFTransformerIfE12isPowerOfTwoEj:

00000000 <__ZN13FFTransformerIfE12isPowerOfTwoEj>:
   0:	8b 44 24 04          	mov    eax,DWORD PTR [esp+0x4]
   4:	8d 50 ff             	lea    edx,[eax-0x1]
   7:	85 c2                	test   edx,eax
   9:	0f 94 c0             	sete   al
   c:	c2 04 00             	ret    0x4
   f:	90                   	nop

Disassembly of section .text$_ZN13FFTransformerIfE13getPowerOfTwoEj:

00000000 <__ZN13FFTransformerIfE13getPowerOfTwoEj>:
   0:	0f bd 54 24 04       	bsr    edx,DWORD PTR [esp+0x4]
   5:	b8 1f 00 00 00       	mov    eax,0x1f
   a:	83 f2 1f             	xor    edx,0x1f
   d:	29 d0                	sub    eax,edx
   f:	c2 04 00             	ret    0x4
  12:	90                   	nop
  13:	90                   	nop
  14:	90                   	nop
  15:	90                   	nop
  16:	90                   	nop
  17:	90                   	nop
  18:	90                   	nop
  19:	90                   	nop
  1a:	90                   	nop
  1b:	90                   	nop
  1c:	90                   	nop
  1d:	90                   	nop
  1e:	90                   	nop
  1f:	90                   	nop

Disassembly of section .text$_ZN13FFTransformerIfE15bitReverseInt32Ej:

00000000 <__ZN13FFTransformerIfE15bitReverseInt32Ej>:
   0:	53                   	push   ebx
   1:	8b 44 24 08          	mov    eax,DWORD PTR [esp+0x8]
   5:	ba 04 00 00 00       	mov    edx,0x4
   a:	0f b6 c8             	movzx  ecx,al
   d:	31 c8                	xor    eax,ecx
   f:	89 c3                	mov    ebx,eax
  11:	0f b6 81 00 00 00 00 	movzx  eax,BYTE PTR [ecx+0x0]
  18:	09 d8                	or     eax,ebx
  1a:	c1 c8 08             	ror    eax,0x8
  1d:	83 ea 01             	sub    edx,0x1
  20:	75 e8                	jne    a <__ZN13FFTransformerIfE15bitReverseInt32Ej+0xa>
  22:	0f c8                	bswap  eax
  24:	5b                   	pop    ebx
  25:	c2 04 00             	ret    0x4
  28:	90                   	nop
  29:	90                   	nop
  2a:	90                   	nop
  2b:	90                   	nop
  2c:	90                   	nop
  2d:	90                   	nop
  2e:	90                   	nop
  2f:	90                   	nop

Disassembly of section .text$_ZN13FFTransformerIfE12arrayShuffleEP7ComplexIfEi:

00000000 <__ZN13FFTransformerIfE12arrayShuffleEP7ComplexIfEi>:
   0:	55                   	push   ebp
   1:	57                   	push   edi
   2:	31 ff                	xor    edi,edi
   4:	56                   	push   esi
   5:	53                   	push   ebx
   6:	8b 44 24 18          	mov    eax,DWORD PTR [esp+0x18]
   a:	0f bd 4c 24 18       	bsr    ecx,DWORD PTR [esp+0x18]
   f:	8b 6c 24 14          	mov    ebp,DWORD PTR [esp+0x14]
  13:	83 f1 1f             	xor    ecx,0x1f
  16:	83 c1 01             	add    ecx,0x1
  19:	85 c0                	test   eax,eax
  1b:	7e 55                	jle    72 <__ZN13FFTransformerIfE12arrayShuffleEP7ComplexIfEi+0x72>
  1d:	8d 76 00             	lea    esi,[esi+0x0]
  20:	89 f8                	mov    eax,edi
  22:	ba 04 00 00 00       	mov    edx,0x4
  27:	0f b6 d8             	movzx  ebx,al
  2a:	31 d8                	xor    eax,ebx
  2c:	89 c6                	mov    esi,eax
  2e:	0f b6 83 00 00 00 00 	movzx  eax,BYTE PTR [ebx+0x0]
  35:	09 f0                	or     eax,esi
  37:	c1 c8 08             	ror    eax,0x8
  3a:	83 ea 01             	sub    edx,0x1
  3d:	75 e8                	jne    27 <__ZN13FFTransformerIfE12arrayShuffleEP7ComplexIfEi+0x27>
  3f:	0f c8                	bswap  eax
  41:	d3 e8                	shr    eax,cl
  43:	39 c7                	cmp    edi,eax
  45:	73 1f                	jae    66 <__ZN13FFTransformerIfE12arrayShuffleEP7ComplexIfEi+0x66>
  47:	8b 54 24 14          	mov    edx,DWORD PTR [esp+0x14]
  4b:	d9 45 00             	fld    DWORD PTR [ebp+0x0]
  4e:	d9 45 04             	fld    DWORD PTR [ebp+0x4]
  51:	d9 c9                	fxch   st(1)
  53:	8d 04 c2             	lea    eax,[edx+eax*8]
  56:	8b 18                	mov    ebx,DWORD PTR [eax]
  58:	8b 70 04             	mov    esi,DWORD PTR [eax+0x4]
  5b:	89 5d 00             	mov    DWORD PTR [ebp+0x0],ebx
  5e:	89 75 04             	mov    DWORD PTR [ebp+0x4],esi
  61:	d9 18                	fstp   DWORD PTR [eax]
  63:	d9 58 04             	fstp   DWORD PTR [eax+0x4]
  66:	83 c7 01             	add    edi,0x1
  69:	83 c5 08             	add    ebp,0x8
  6c:	3b 7c 24 18          	cmp    edi,DWORD PTR [esp+0x18]
  70:	75 ae                	jne    20 <__ZN13FFTransformerIfE12arrayShuffleEP7ComplexIfEi+0x20>
  72:	5b                   	pop    ebx
  73:	5e                   	pop    esi
  74:	5f                   	pop    edi
  75:	5d                   	pop    ebp
  76:	c2 08 00             	ret    0x8
  79:	90                   	nop
  7a:	90                   	nop
  7b:	90                   	nop
  7c:	90                   	nop
  7d:	90                   	nop
  7e:	90                   	nop
  7f:	90                   	nop

Disassembly of section .text$_ZN13FFTransformerIfEC2Ev:

00000000 <__ZN13FFTransformerIfEC2Ev>:
   0:	c7 01 08 00 00 00    	mov    DWORD PTR [ecx],0x8
   6:	c3                   	ret    
   7:	90                   	nop
   8:	90                   	nop
   9:	90                   	nop
   a:	90                   	nop
   b:	90                   	nop
   c:	90                   	nop
   d:	90                   	nop
   e:	90                   	nop
   f:	90                   	nop

Disassembly of section .text$_ZN13FFTransformerIfEC1Ev:

00000000 <__ZN13FFTransformerIfEC1Ev>:
   0:	c7 01 08 00 00 00    	mov    DWORD PTR [ecx],0x8
   6:	c3                   	ret    
   7:	90                   	nop
   8:	90                   	nop
   9:	90                   	nop
   a:	90                   	nop
   b:	90                   	nop
   c:	90                   	nop
   d:	90                   	nop
   e:	90                   	nop
   f:	90                   	nop

Disassembly of section .text$_ZN13FFTransformerIfEC2Eii:

00000000 <__ZN13FFTransformerIfEC2Eii>:
   0:	8b 44 24 04          	mov    eax,DWORD PTR [esp+0x4]
   4:	c7 01 08 00 00 00    	mov    DWORD PTR [ecx],0x8
   a:	85 c0                	test   eax,eax
   c:	7e 18                	jle    26 <__ZN13FFTransformerIfEC2Eii+0x26>
   e:	8d 50 ff             	lea    edx,[eax-0x1]
  11:	85 c2                	test   edx,eax
  13:	75 11                	jne    26 <__ZN13FFTransformerIfEC2Eii+0x26>
  15:	8b 54 24 08          	mov    edx,DWORD PTR [esp+0x8]
  19:	89 41 04             	mov    DWORD PTR [ecx+0x4],eax
  1c:	31 c0                	xor    eax,eax
  1e:	85 d2                	test   edx,edx
  20:	0f 9f c0             	setg   al
  23:	89 41 08             	mov    DWORD PTR [ecx+0x8],eax
  26:	c2 08 00             	ret    0x8
  29:	90                   	nop
  2a:	90                   	nop
  2b:	90                   	nop
  2c:	90                   	nop
  2d:	90                   	nop
  2e:	90                   	nop
  2f:	90                   	nop

Disassembly of section .text$_ZN13FFTransformerIfEC1Eii:

00000000 <__ZN13FFTransformerIfEC1Eii>:
   0:	8b 44 24 04          	mov    eax,DWORD PTR [esp+0x4]
   4:	c7 01 08 00 00 00    	mov    DWORD PTR [ecx],0x8
   a:	85 c0                	test   eax,eax
   c:	7e 18                	jle    26 <__ZN13FFTransformerIfEC1Eii+0x26>
   e:	8d 50 ff             	lea    edx,[eax-0x1]
  11:	85 c2                	test   edx,eax
  13:	75 11                	jne    26 <__ZN13FFTransformerIfEC1Eii+0x26>
  15:	8b 54 24 08          	mov    edx,DWORD PTR [esp+0x8]
  19:	89 41 04             	mov    DWORD PTR [ecx+0x4],eax
  1c:	31 c0                	xor    eax,eax
  1e:	85 d2                	test   edx,edx
  20:	0f 9f c0             	setg   al
  23:	89 41 08             	mov    DWORD PTR [ecx+0x8],eax
  26:	c2 08 00             	ret    0x8
  29:	90                   	nop
  2a:	90                   	nop
  2b:	90                   	nop
  2c:	90                   	nop
  2d:	90                   	nop
  2e:	90                   	nop
  2f:	90                   	nop

Disassembly of section .text$_ZN13FFTransformerIfED2Ev:

00000000 <__ZN13FFTransformerIfED2Ev>:
   0:	c7 01 08 00 00 00    	mov    DWORD PTR [ecx],0x8
   6:	c3                   	ret    
   7:	90                   	nop
   8:	90                   	nop
   9:	90                   	nop
   a:	90                   	nop
   b:	90                   	nop
   c:	90                   	nop
   d:	90                   	nop
   e:	90                   	nop
   f:	90                   	nop

Disassembly of section .text$_ZN13FFTransformerIfE7FFTInitEii:

00000000 <__ZN13FFTransformerIfE7FFTInitEii>:
   0:	53                   	push   ebx
   1:	8b 54 24 08          	mov    edx,DWORD PTR [esp+0x8]
   5:	31 c0                	xor    eax,eax
   7:	85 d2                	test   edx,edx
   9:	7e 1d                	jle    28 <__ZN13FFTransformerIfE7FFTInitEii+0x28>
   b:	8d 5a ff             	lea    ebx,[edx-0x1]
   e:	85 d3                	test   ebx,edx
  10:	75 16                	jne    28 <__ZN13FFTransformerIfE7FFTInitEii+0x28>
  12:	8b 5c 24 0c          	mov    ebx,DWORD PTR [esp+0xc]
  16:	31 c0                	xor    eax,eax
  18:	89 51 04             	mov    DWORD PTR [ecx+0x4],edx
  1b:	85 db                	test   ebx,ebx
  1d:	0f 9f c0             	setg   al
  20:	89 41 08             	mov    DWORD PTR [ecx+0x8],eax
  23:	b8 01 00 00 00       	mov    eax,0x1
  28:	5b                   	pop    ebx
  29:	c2 08 00             	ret    0x8
  2c:	90                   	nop
  2d:	90                   	nop
  2e:	90                   	nop
  2f:	90                   	nop

Disassembly of section .text$_ZN13FFTransformerIfE11FFTransformEP7ComplexIfE:

00000000 <__ZN13FFTransformerIfE11FFTransformEP7ComplexIfE>:
   0:	55                   	push   ebp
   1:	31 c0                	xor    eax,eax
   3:	89 e5                	mov    ebp,esp
   5:	57                   	push   edi
   6:	56                   	push   esi
   7:	53                   	push   ebx
   8:	89 cb                	mov    ebx,ecx
   a:	83 ec 4c             	sub    esp,0x4c
   d:	8b 51 04             	mov    edx,DWORD PTR [ecx+0x4]
  10:	85 d2                	test   edx,edx
  12:	0f 8e 32 01 00 00    	jle    14a <__ZN13FFTransformerIfE11FFTransformEP7ComplexIfE+0x14a>
  18:	8d 4a ff             	lea    ecx,[edx-0x1]
  1b:	85 d1                	test   ecx,edx
  1d:	0f 85 27 01 00 00    	jne    14a <__ZN13FFTransformerIfE11FFTransformEP7ComplexIfE+0x14a>
  23:	8b 45 08             	mov    eax,DWORD PTR [ebp+0x8]
  26:	89 d9                	mov    ecx,ebx
  28:	89 54 24 04          	mov    DWORD PTR [esp+0x4],edx
  2c:	89 04 24             	mov    DWORD PTR [esp],eax
  2f:	e8 00 00 00 00       	call   34 <__ZN13FFTransformerIfE11FFTransformEP7ComplexIfE+0x34>
  34:	8b 7b 04             	mov    edi,DWORD PTR [ebx+0x4]
  37:	c7 45 b0 1f 00 00 00 	mov    DWORD PTR [ebp-0x50],0x1f
  3e:	0f bd c7             	bsr    eax,edi
  41:	83 f0 1f             	xor    eax,0x1f
  44:	29 45 b0             	sub    DWORD PTR [ebp-0x50],eax
  47:	83 ec 08             	sub    esp,0x8
  4a:	8b 75 b0             	mov    esi,DWORD PTR [ebp-0x50]
  4d:	85 f6                	test   esi,esi
  4f:	0f 8e f0 00 00 00    	jle    145 <__ZN13FFTransformerIfE11FFTransformEP7ComplexIfE+0x145>
  55:	db 43 08             	fild   DWORD PTR [ebx+0x8]
  58:	b9 01 00 00 00       	mov    ecx,0x1
  5d:	dc 0d 00 00 00 00    	fmul   QWORD PTR ds:0x0
  63:	89 cb                	mov    ebx,ecx
  65:	c7 45 b4 00 00 00 00 	mov    DWORD PTR [ebp-0x4c],0x0
  6c:	dd 5d b8             	fstp   QWORD PTR [ebp-0x48]
  6f:	8b 45 08             	mov    eax,DWORD PTR [ebp+0x8]
  72:	89 d9                	mov    ecx,ebx
  74:	89 5d e0             	mov    DWORD PTR [ebp-0x20],ebx
  77:	c1 e1 04             	shl    ecx,0x4
  7a:	db 45 e0             	fild   DWORD PTR [ebp-0x20]
  7d:	8d 34 1b             	lea    esi,[ebx+ebx*1]
  80:	dd 5d c0             	fstp   QWORD PTR [ebp-0x40]
  83:	89 45 d8             	mov    DWORD PTR [ebp-0x28],eax
  86:	c7 45 dc 00 00 00 00 	mov    DWORD PTR [ebp-0x24],0x0
  8d:	89 4d d0             	mov    DWORD PTR [ebp-0x30],ecx
  90:	db 45 dc             	fild   DWORD PTR [ebp-0x24]
  93:	dc 4d b8             	fmul   QWORD PTR [ebp-0x48]
  96:	dc 75 c0             	fdiv   QWORD PTR [ebp-0x40]
  99:	d9 5d e4             	fstp   DWORD PTR [ebp-0x1c]
  9c:	d9 45 e4             	fld    DWORD PTR [ebp-0x1c]
  9f:	d9 c0                	fld    st(0)
  a1:	dd 5d c8             	fstp   QWORD PTR [ebp-0x38]
  a4:	dd 1c 24             	fstp   QWORD PTR [esp]
  a7:	e8 00 00 00 00       	call   ac <__ZN13FFTransformerIfE11FFTransformEP7ComplexIfE+0xac>
  ac:	d9 5d e4             	fstp   DWORD PTR [ebp-0x1c]
  af:	d9 45 e4             	fld    DWORD PTR [ebp-0x1c]
  b2:	d9 5d d4             	fstp   DWORD PTR [ebp-0x2c]
  b5:	dd 45 c8             	fld    QWORD PTR [ebp-0x38]
  b8:	dd 1c 24             	fstp   QWORD PTR [esp]
  bb:	e8 00 00 00 00       	call   c0 <__ZN13FFTransformerIfE11FFTransformEP7ComplexIfE+0xc0>
  c0:	8b 4d dc             	mov    ecx,DWORD PTR [ebp-0x24]
  c3:	8b 45 d8             	mov    eax,DWORD PTR [ebp-0x28]
  c6:	39 cf                	cmp    edi,ecx
  c8:	89 ca                	mov    edx,ecx
  ca:	d9 5d e4             	fstp   DWORD PTR [ebp-0x1c]
  cd:	d9 45 e4             	fld    DWORD PTR [ebp-0x1c]
  d0:	d9 45 d4             	fld    DWORD PTR [ebp-0x2c]
  d3:	7e 48                	jle    11d <__ZN13FFTransformerIfE11FFTransformEP7ComplexIfE+0x11d>
  d5:	8b 4d d0             	mov    ecx,DWORD PTR [ebp-0x30]
  d8:	d9 04 d8             	fld    DWORD PTR [eax+ebx*8]
  db:	01 f2                	add    edx,esi
  dd:	d9 44 d8 04          	fld    DWORD PTR [eax+ebx*8+0x4]
  e1:	d9 c1                	fld    st(1)
  e3:	d8 cb                	fmul   st,st(3)
  e5:	d9 c1                	fld    st(1)
  e7:	d8 cd                	fmul   st,st(5)
  e9:	de e9                	fsubrp st(1),st
  eb:	d9 ca                	fxch   st(2)
  ed:	d8 cc                	fmul   st,st(4)
  ef:	d9 c9                	fxch   st(1)
  f1:	d8 cb                	fmul   st,st(3)
  f3:	de c1                	faddp  st(1),st
  f5:	d9 c1                	fld    st(1)
  f7:	d8 28                	fsubr  DWORD PTR [eax]
  f9:	d9 1c d8             	fstp   DWORD PTR [eax+ebx*8]
  fc:	d9 c0                	fld    st(0)
  fe:	d8 68 04             	fsubr  DWORD PTR [eax+0x4]
 101:	d9 5c d8 04          	fstp   DWORD PTR [eax+ebx*8+0x4]
 105:	d9 c9                	fxch   st(1)
 107:	d8 00                	fadd   DWORD PTR [eax]
 109:	d9 18                	fstp   DWORD PTR [eax]
 10b:	d8 40 04             	fadd   DWORD PTR [eax+0x4]
 10e:	d9 58 04             	fstp   DWORD PTR [eax+0x4]
 111:	01 c8                	add    eax,ecx
 113:	39 d7                	cmp    edi,edx
 115:	7f c1                	jg     d8 <__ZN13FFTransformerIfE11FFTransformEP7ComplexIfE+0xd8>
 117:	dd d8                	fstp   st(0)
 119:	dd d8                	fstp   st(0)
 11b:	eb 04                	jmp    121 <__ZN13FFTransformerIfE11FFTransformEP7ComplexIfE+0x121>
 11d:	dd d8                	fstp   st(0)
 11f:	dd d8                	fstp   st(0)
 121:	83 45 dc 01          	add    DWORD PTR [ebp-0x24],0x1
 125:	83 45 d8 08          	add    DWORD PTR [ebp-0x28],0x8
 129:	3b 5d dc             	cmp    ebx,DWORD PTR [ebp-0x24]
 12c:	0f 8f 5e ff ff ff    	jg     90 <__ZN13FFTransformerIfE11FFTransformEP7ComplexIfE+0x90>
 132:	83 45 b4 01          	add    DWORD PTR [ebp-0x4c],0x1
 136:	8b 45 b0             	mov    eax,DWORD PTR [ebp-0x50]
 139:	39 45 b4             	cmp    DWORD PTR [ebp-0x4c],eax
 13c:	74 07                	je     145 <__ZN13FFTransformerIfE11FFTransformEP7ComplexIfE+0x145>
 13e:	89 f3                	mov    ebx,esi
 140:	e9 2a ff ff ff       	jmp    6f <__ZN13FFTransformerIfE11FFTransformEP7ComplexIfE+0x6f>
 145:	b8 01 00 00 00       	mov    eax,0x1
 14a:	8d 65 f4             	lea    esp,[ebp-0xc]
 14d:	5b                   	pop    ebx
 14e:	5e                   	pop    esi
 14f:	5f                   	pop    edi
 150:	5d                   	pop    ebp
 151:	c2 04 00             	ret    0x4
 154:	90                   	nop
 155:	90                   	nop
 156:	90                   	nop
 157:	90                   	nop
 158:	90                   	nop
 159:	90                   	nop
 15a:	90                   	nop
 15b:	90                   	nop
 15c:	90                   	nop
 15d:	90                   	nop
 15e:	90                   	nop
 15f:	90                   	nop

Disassembly of section .text$_ZN13FFTransformerIdE12isPowerOfTwoEj:

00000000 <__ZN13FFTransformerIdE12isPowerOfTwoEj>:
   0:	8b 44 24 04          	mov    eax,DWORD PTR [esp+0x4]
   4:	8d 50 ff             	lea    edx,[eax-0x1]
   7:	85 c2                	test   edx,eax
   9:	0f 94 c0             	sete   al
   c:	c2 04 00             	ret    0x4
   f:	90                   	nop

Disassembly of section .text$_ZN13FFTransformerIdE13getPowerOfTwoEj:

00000000 <__ZN13FFTransformerIdE13getPowerOfTwoEj>:
   0:	0f bd 54 24 04       	bsr    edx,DWORD PTR [esp+0x4]
   5:	b8 1f 00 00 00       	mov    eax,0x1f
   a:	83 f2 1f             	xor    edx,0x1f
   d:	29 d0                	sub    eax,edx
   f:	c2 04 00             	ret    0x4
  12:	90                   	nop
  13:	90                   	nop
  14:	90                   	nop
  15:	90                   	nop
  16:	90                   	nop
  17:	90                   	nop
  18:	90                   	nop
  19:	90                   	nop
  1a:	90                   	nop
  1b:	90                   	nop
  1c:	90                   	nop
  1d:	90                   	nop
  1e:	90                   	nop
  1f:	90                   	nop

Disassembly of section .text$_ZN13FFTransformerIdE15bitReverseInt32Ej:

00000000 <__ZN13FFTransformerIdE15bitReverseInt32Ej>:
   0:	53                   	push   ebx
   1:	8b 44 24 08          	mov    eax,DWORD PTR [esp+0x8]
   5:	ba 04 00 00 00       	mov    edx,0x4
   a:	0f b6 c8             	movzx  ecx,al
   d:	31 c8                	xor    eax,ecx
   f:	89 c3                	mov    ebx,eax
  11:	0f b6 81 00 00 00 00 	movzx  eax,BYTE PTR [ecx+0x0]
  18:	09 d8                	or     eax,ebx
  1a:	c1 c8 08             	ror    eax,0x8
  1d:	83 ea 01             	sub    edx,0x1
  20:	75 e8                	jne    a <__ZN13FFTransformerIdE15bitReverseInt32Ej+0xa>
  22:	0f c8                	bswap  eax
  24:	5b                   	pop    ebx
  25:	c2 04 00             	ret    0x4
  28:	90                   	nop
  29:	90                   	nop
  2a:	90                   	nop
  2b:	90                   	nop
  2c:	90                   	nop
  2d:	90                   	nop
  2e:	90                   	nop
  2f:	90                   	nop

Disassembly of section .text$_ZN13FFTransformerIdE12arrayShuffleEP7ComplexIdEi:

00000000 <__ZN13FFTransformerIdE12arrayShuffleEP7ComplexIdEi>:
   0:	55                   	push   ebp
   1:	57                   	push   edi
   2:	31 ff                	xor    edi,edi
   4:	56                   	push   esi
   5:	53                   	push   ebx
   6:	8b 44 24 18          	mov    eax,DWORD PTR [esp+0x18]
   a:	0f bd 4c 24 18       	bsr    ecx,DWORD PTR [esp+0x18]
   f:	8b 6c 24 14          	mov    ebp,DWORD PTR [esp+0x14]
  13:	83 f1 1f             	xor    ecx,0x1f
  16:	83 c1 01             	add    ecx,0x1
  19:	85 c0                	test   eax,eax
  1b:	7e 61                	jle    7e <__ZN13FFTransformerIdE12arrayShuffleEP7ComplexIdEi+0x7e>
  1d:	8d 76 00             	lea    esi,[esi+0x0]
  20:	89 f8                	mov    eax,edi
  22:	ba 04 00 00 00       	mov    edx,0x4
  27:	0f b6 d8             	movzx  ebx,al
  2a:	31 d8                	xor    eax,ebx
  2c:	89 c6                	mov    esi,eax
  2e:	0f b6 83 00 00 00 00 	movzx  eax,BYTE PTR [ebx+0x0]
  35:	09 f0                	or     eax,esi
  37:	c1 c8 08             	ror    eax,0x8
  3a:	83 ea 01             	sub    edx,0x1
  3d:	75 e8                	jne    27 <__ZN13FFTransformerIdE12arrayShuffleEP7ComplexIdEi+0x27>
  3f:	0f c8                	bswap  eax
  41:	d3 e8                	shr    eax,cl
  43:	39 c7                	cmp    edi,eax
  45:	73 2b                	jae    72 <__ZN13FFTransformerIdE12arrayShuffleEP7ComplexIdEi+0x72>
  47:	c1 e0 04             	shl    eax,0x4
  4a:	dd 45 00             	fld    QWORD PTR [ebp+0x0]
  4d:	03 44 24 14          	add    eax,DWORD PTR [esp+0x14]
  51:	dd 45 08             	fld    QWORD PTR [ebp+0x8]
  54:	d9 c9                	fxch   st(1)
  56:	8b 10                	mov    edx,DWORD PTR [eax]
  58:	89 55 00             	mov    DWORD PTR [ebp+0x0],edx
  5b:	8b 50 04             	mov    edx,DWORD PTR [eax+0x4]
  5e:	89 55 04             	mov    DWORD PTR [ebp+0x4],edx
  61:	8b 50 08             	mov    edx,DWORD PTR [eax+0x8]
  64:	89 55 08             	mov    DWORD PTR [ebp+0x8],edx
  67:	8b 50 0c             	mov    edx,DWORD PTR [eax+0xc]
  6a:	89 55 0c             	mov    DWORD PTR [ebp+0xc],edx
  6d:	dd 18                	fstp   QWORD PTR [eax]
  6f:	dd 58 08             	fstp   QWORD PTR [eax+0x8]
  72:	83 c7 01             	add    edi,0x1
  75:	83 c5 10             	add    ebp,0x10
  78:	3b 7c 24 18          	cmp    edi,DWORD PTR [esp+0x18]
  7c:	75 a2                	jne    20 <__ZN13FFTransformerIdE12arrayShuffleEP7ComplexIdEi+0x20>
  7e:	5b                   	pop    ebx
  7f:	5e                   	pop    esi
  80:	5f                   	pop    edi
  81:	5d                   	pop    ebp
  82:	c2 08 00             	ret    0x8
  85:	90                   	nop
  86:	90                   	nop
  87:	90                   	nop
  88:	90                   	nop
  89:	90                   	nop
  8a:	90                   	nop
  8b:	90                   	nop
  8c:	90                   	nop
  8d:	90                   	nop
  8e:	90                   	nop
  8f:	90                   	nop

Disassembly of section .text$_ZN13FFTransformerIdEC2Ev:

00000000 <__ZN13FFTransformerIdEC2Ev>:
   0:	c7 01 08 00 00 00    	mov    DWORD PTR [ecx],0x8
   6:	c3                   	ret    
   7:	90                   	nop
   8:	90                   	nop
   9:	90                   	nop
   a:	90                   	nop
   b:	90                   	nop
   c:	90                   	nop
   d:	90                   	nop
   e:	90                   	nop
   f:	90                   	nop

Disassembly of section .text$_ZN13FFTransformerIdEC1Ev:

00000000 <__ZN13FFTransformerIdEC1Ev>:
   0:	c7 01 08 00 00 00    	mov    DWORD PTR [ecx],0x8
   6:	c3                   	ret    
   7:	90                   	nop
   8:	90                   	nop
   9:	90                   	nop
   a:	90                   	nop
   b:	90                   	nop
   c:	90                   	nop
   d:	90                   	nop
   e:	90                   	nop
   f:	90                   	nop

Disassembly of section .text$_ZN13FFTransformerIdEC2Eii:

00000000 <__ZN13FFTransformerIdEC2Eii>:
   0:	8b 44 24 04          	mov    eax,DWORD PTR [esp+0x4]
   4:	c7 01 08 00 00 00    	mov    DWORD PTR [ecx],0x8
   a:	85 c0                	test   eax,eax
   c:	7e 18                	jle    26 <__ZN13FFTransformerIdEC2Eii+0x26>
   e:	8d 50 ff             	lea    edx,[eax-0x1]
  11:	85 c2                	test   edx,eax
  13:	75 11                	jne    26 <__ZN13FFTransformerIdEC2Eii+0x26>
  15:	8b 54 24 08          	mov    edx,DWORD PTR [esp+0x8]
  19:	89 41 04             	mov    DWORD PTR [ecx+0x4],eax
  1c:	31 c0                	xor    eax,eax
  1e:	85 d2                	test   edx,edx
  20:	0f 9f c0             	setg   al
  23:	89 41 08             	mov    DWORD PTR [ecx+0x8],eax
  26:	c2 08 00             	ret    0x8
  29:	90                   	nop
  2a:	90                   	nop
  2b:	90                   	nop
  2c:	90                   	nop
  2d:	90                   	nop
  2e:	90                   	nop
  2f:	90                   	nop

Disassembly of section .text$_ZN13FFTransformerIdEC1Eii:

00000000 <__ZN13FFTransformerIdEC1Eii>:
   0:	8b 44 24 04          	mov    eax,DWORD PTR [esp+0x4]
   4:	c7 01 08 00 00 00    	mov    DWORD PTR [ecx],0x8
   a:	85 c0                	test   eax,eax
   c:	7e 18                	jle    26 <__ZN13FFTransformerIdEC1Eii+0x26>
   e:	8d 50 ff             	lea    edx,[eax-0x1]
  11:	85 c2                	test   edx,eax
  13:	75 11                	jne    26 <__ZN13FFTransformerIdEC1Eii+0x26>
  15:	8b 54 24 08          	mov    edx,DWORD PTR [esp+0x8]
  19:	89 41 04             	mov    DWORD PTR [ecx+0x4],eax
  1c:	31 c0                	xor    eax,eax
  1e:	85 d2                	test   edx,edx
  20:	0f 9f c0             	setg   al
  23:	89 41 08             	mov    DWORD PTR [ecx+0x8],eax
  26:	c2 08 00             	ret    0x8
  29:	90                   	nop
  2a:	90                   	nop
  2b:	90                   	nop
  2c:	90                   	nop
  2d:	90                   	nop
  2e:	90                   	nop
  2f:	90                   	nop

Disassembly of section .text$_ZN13FFTransformerIdED2Ev:

00000000 <__ZN13FFTransformerIdED2Ev>:
   0:	c7 01 08 00 00 00    	mov    DWORD PTR [ecx],0x8
   6:	c3                   	ret    
   7:	90                   	nop
   8:	90                   	nop
   9:	90                   	nop
   a:	90                   	nop
   b:	90                   	nop
   c:	90                   	nop
   d:	90                   	nop
   e:	90                   	nop
   f:	90                   	nop

Disassembly of section .text$_ZN13FFTransformerIdE7FFTInitEii:

00000000 <__ZN13FFTransformerIdE7FFTInitEii>:
   0:	53                   	push   ebx
   1:	8b 54 24 08          	mov    edx,DWORD PTR [esp+0x8]
   5:	31 c0                	xor    eax,eax
   7:	85 d2                	test   edx,edx
   9:	7e 1d                	jle    28 <__ZN13FFTransformerIdE7FFTInitEii+0x28>
   b:	8d 5a ff             	lea    ebx,[edx-0x1]
   e:	85 d3                	test   ebx,edx
  10:	75 16                	jne    28 <__ZN13FFTransformerIdE7FFTInitEii+0x28>
  12:	8b 5c 24 0c          	mov    ebx,DWORD PTR [esp+0xc]
  16:	31 c0                	xor    eax,eax
  18:	89 51 04             	mov    DWORD PTR [ecx+0x4],edx
  1b:	85 db                	test   ebx,ebx
  1d:	0f 9f c0             	setg   al
  20:	89 41 08             	mov    DWORD PTR [ecx+0x8],eax
  23:	b8 01 00 00 00       	mov    eax,0x1
  28:	5b                   	pop    ebx
  29:	c2 08 00             	ret    0x8
  2c:	90                   	nop
  2d:	90                   	nop
  2e:	90                   	nop
  2f:	90                   	nop

Disassembly of section .text$_ZN13FFTransformerIdE11FFTransformEP7ComplexIdE:

00000000 <__ZN13FFTransformerIdE11FFTransformEP7ComplexIdE>:
   0:	55                   	push   ebp
   1:	31 c0                	xor    eax,eax
   3:	89 e5                	mov    ebp,esp
   5:	57                   	push   edi
   6:	56                   	push   esi
   7:	53                   	push   ebx
   8:	89 cb                	mov    ebx,ecx
   a:	83 ec 5c             	sub    esp,0x5c
   d:	8b 51 04             	mov    edx,DWORD PTR [ecx+0x4]
  10:	85 d2                	test   edx,edx
  12:	0f 8e 35 01 00 00    	jle    14d <__ZN13FFTransformerIdE11FFTransformEP7ComplexIdE+0x14d>
  18:	8d 4a ff             	lea    ecx,[edx-0x1]
  1b:	85 d1                	test   ecx,edx
  1d:	0f 85 2a 01 00 00    	jne    14d <__ZN13FFTransformerIdE11FFTransformEP7ComplexIdE+0x14d>
  23:	8b 45 08             	mov    eax,DWORD PTR [ebp+0x8]
  26:	89 d9                	mov    ecx,ebx
  28:	89 54 24 04          	mov    DWORD PTR [esp+0x4],edx
  2c:	89 04 24             	mov    DWORD PTR [esp],eax
  2f:	e8 00 00 00 00       	call   34 <__ZN13FFTransformerIdE11FFTransformEP7ComplexIdE+0x34>
  34:	8b 4b 04             	mov    ecx,DWORD PTR [ebx+0x4]
  37:	c7 45 ac 1f 00 00 00 	mov    DWORD PTR [ebp-0x54],0x1f
  3e:	0f bd c1             	bsr    eax,ecx
  41:	83 f0 1f             	xor    eax,0x1f
  44:	29 45 ac             	sub    DWORD PTR [ebp-0x54],eax
  47:	83 ec 08             	sub    esp,0x8
  4a:	8b 75 ac             	mov    esi,DWORD PTR [ebp-0x54]
  4d:	85 f6                	test   esi,esi
  4f:	0f 8e f3 00 00 00    	jle    148 <__ZN13FFTransformerIdE11FFTransformEP7ComplexIdE+0x148>
  55:	db 43 08             	fild   DWORD PTR [ebx+0x8]
  58:	89 ce                	mov    esi,ecx
  5a:	dc 0d 00 00 00 00    	fmul   QWORD PTR ds:0x0
  60:	c7 45 b0 00 00 00 00 	mov    DWORD PTR [ebp-0x50],0x0
  67:	c7 45 d8 01 00 00 00 	mov    DWORD PTR [ebp-0x28],0x1
  6e:	dd 5d b8             	fstp   QWORD PTR [ebp-0x48]
  71:	8b 5d d8             	mov    ebx,DWORD PTR [ebp-0x28]
  74:	8b 45 08             	mov    eax,DWORD PTR [ebp+0x8]
  77:	c7 45 e0 00 00 00 00 	mov    DWORD PTR [ebp-0x20],0x0
  7e:	89 5d e4             	mov    DWORD PTR [ebp-0x1c],ebx
  81:	89 d9                	mov    ecx,ebx
  83:	db 45 e4             	fild   DWORD PTR [ebp-0x1c]
  86:	c1 e1 05             	shl    ecx,0x5
  89:	8d 3c 1b             	lea    edi,[ebx+ebx*1]
  8c:	dd 5d c0             	fstp   QWORD PTR [ebp-0x40]
  8f:	89 45 dc             	mov    DWORD PTR [ebp-0x24],eax
  92:	c1 e3 04             	shl    ebx,0x4
  95:	89 4d b4             	mov    DWORD PTR [ebp-0x4c],ecx
  98:	db 45 e0             	fild   DWORD PTR [ebp-0x20]
  9b:	dc 4d b8             	fmul   QWORD PTR [ebp-0x48]
  9e:	dc 75 c0             	fdiv   QWORD PTR [ebp-0x40]
  a1:	dd 14 24             	fst    QWORD PTR [esp]
  a4:	dd 5d c8             	fstp   QWORD PTR [ebp-0x38]
  a7:	e8 00 00 00 00       	call   ac <__ZN13FFTransformerIdE11FFTransformEP7ComplexIdE+0xac>
  ac:	dd 5d d0             	fstp   QWORD PTR [ebp-0x30]
  af:	dd 45 c8             	fld    QWORD PTR [ebp-0x38]
  b2:	dd 1c 24             	fstp   QWORD PTR [esp]
  b5:	e8 00 00 00 00       	call   ba <__ZN13FFTransformerIdE11FFTransformEP7ComplexIdE+0xba>
  ba:	8b 4d e0             	mov    ecx,DWORD PTR [ebp-0x20]
  bd:	8b 45 dc             	mov    eax,DWORD PTR [ebp-0x24]
  c0:	39 ce                	cmp    esi,ecx
  c2:	89 ca                	mov    edx,ecx
  c4:	dd 45 d0             	fld    QWORD PTR [ebp-0x30]
  c7:	7e 4c                	jle    115 <__ZN13FFTransformerIdE11FFTransformEP7ComplexIdE+0x115>
  c9:	8b 4d b4             	mov    ecx,DWORD PTR [ebp-0x4c]
  cc:	8d 74 26 00          	lea    esi,[esi+eiz*1+0x0]
  d0:	dd 04 18             	fld    QWORD PTR [eax+ebx*1]
  d3:	01 fa                	add    edx,edi
  d5:	dd 44 18 08          	fld    QWORD PTR [eax+ebx*1+0x8]
  d9:	d9 c1                	fld    st(1)
  db:	d8 cb                	fmul   st,st(3)
  dd:	d9 c1                	fld    st(1)
  df:	d8 cd                	fmul   st,st(5)
  e1:	de e9                	fsubrp st(1),st
  e3:	d9 ca                	fxch   st(2)
  e5:	d8 cc                	fmul   st,st(4)
  e7:	d9 c9                	fxch   st(1)
  e9:	d8 cb                	fmul   st,st(3)
  eb:	de c1                	faddp  st(1),st
  ed:	d9 c1                	fld    st(1)
  ef:	dc 28                	fsubr  QWORD PTR [eax]
  f1:	dd 1c 18             	fstp   QWORD PTR [eax+ebx*1]
  f4:	d9 c0                	fld    st(0)
  f6:	dc 68 08             	fsubr  QWORD PTR [eax+0x8]
  f9:	dd 5c 18 08          	fstp   QWORD PTR [eax+ebx*1+0x8]
  fd:	d9 c9                	fxch   st(1)
  ff:	dc 00                	fadd   QWORD PTR [eax]
 101:	dd 18                	fstp   QWORD PTR [eax]
 103:	dc 40 08             	fadd   QWORD PTR [eax+0x8]
 106:	dd 58 08             	fstp   QWORD PTR [eax+0x8]
 109:	01 c8                	add    eax,ecx
 10b:	39 d6                	cmp    esi,edx
 10d:	7f c1                	jg     d0 <__ZN13FFTransformerIdE11FFTransformEP7ComplexIdE+0xd0>
 10f:	dd d8                	fstp   st(0)
 111:	dd d8                	fstp   st(0)
 113:	eb 0b                	jmp    120 <__ZN13FFTransformerIdE11FFTransformEP7ComplexIdE+0x120>
 115:	dd d8                	fstp   st(0)
 117:	dd d8                	fstp   st(0)
 119:	8d b4 26 00 00 00 00 	lea    esi,[esi+eiz*1+0x0]
 120:	83 45 e0 01          	add    DWORD PTR [ebp-0x20],0x1
 124:	8b 45 e0             	mov    eax,DWORD PTR [ebp-0x20]
 127:	83 45 dc 10          	add    DWORD PTR [ebp-0x24],0x10
 12b:	39 45 d8             	cmp    DWORD PTR [ebp-0x28],eax
 12e:	0f 8f 64 ff ff ff    	jg     98 <__ZN13FFTransformerIdE11FFTransformEP7ComplexIdE+0x98>
 134:	83 45 b0 01          	add    DWORD PTR [ebp-0x50],0x1
 138:	8b 45 ac             	mov    eax,DWORD PTR [ebp-0x54]
 13b:	39 45 b0             	cmp    DWORD PTR [ebp-0x50],eax
 13e:	74 08                	je     148 <__ZN13FFTransformerIdE11FFTransformEP7ComplexIdE+0x148>
 140:	89 7d d8             	mov    DWORD PTR [ebp-0x28],edi
 143:	e9 29 ff ff ff       	jmp    71 <__ZN13FFTransformerIdE11FFTransformEP7ComplexIdE+0x71>
 148:	b8 01 00 00 00       	mov    eax,0x1
 14d:	8d 65 f4             	lea    esp,[ebp-0xc]
 150:	5b                   	pop    ebx
 151:	5e                   	pop    esi
 152:	5f                   	pop    edi
 153:	5d                   	pop    ebp
 154:	c2 04 00             	ret    0x4
 157:	90                   	nop
 158:	90                   	nop
 159:	90                   	nop
 15a:	90                   	nop
 15b:	90                   	nop
 15c:	90                   	nop
 15d:	90                   	nop
 15e:	90                   	nop
 15f:	90                   	nop

Disassembly of section .text$_ZN13FFTransformerIeE12isPowerOfTwoEj:

00000000 <__ZN13FFTransformerIeE12isPowerOfTwoEj>:
   0:	8b 44 24 04          	mov    eax,DWORD PTR [esp+0x4]
   4:	8d 50 ff             	lea    edx,[eax-0x1]
   7:	85 c2                	test   edx,eax
   9:	0f 94 c0             	sete   al
   c:	c2 04 00             	ret    0x4
   f:	90                   	nop

Disassembly of section .text$_ZN13FFTransformerIeE13getPowerOfTwoEj:

00000000 <__ZN13FFTransformerIeE13getPowerOfTwoEj>:
   0:	0f bd 54 24 04       	bsr    edx,DWORD PTR [esp+0x4]
   5:	b8 1f 00 00 00       	mov    eax,0x1f
   a:	83 f2 1f             	xor    edx,0x1f
   d:	29 d0                	sub    eax,edx
   f:	c2 04 00             	ret    0x4
  12:	90                   	nop
  13:	90                   	nop
  14:	90                   	nop
  15:	90                   	nop
  16:	90                   	nop
  17:	90                   	nop
  18:	90                   	nop
  19:	90                   	nop
  1a:	90                   	nop
  1b:	90                   	nop
  1c:	90                   	nop
  1d:	90                   	nop
  1e:	90                   	nop
  1f:	90                   	nop

Disassembly of section .text$_ZN13FFTransformerIeE15bitReverseInt32Ej:

00000000 <__ZN13FFTransformerIeE15bitReverseInt32Ej>:
   0:	53                   	push   ebx
   1:	8b 44 24 08          	mov    eax,DWORD PTR [esp+0x8]
   5:	ba 04 00 00 00       	mov    edx,0x4
   a:	0f b6 c8             	movzx  ecx,al
   d:	31 c8                	xor    eax,ecx
   f:	89 c3                	mov    ebx,eax
  11:	0f b6 81 00 00 00 00 	movzx  eax,BYTE PTR [ecx+0x0]
  18:	09 d8                	or     eax,ebx
  1a:	c1 c8 08             	ror    eax,0x8
  1d:	83 ea 01             	sub    edx,0x1
  20:	75 e8                	jne    a <__ZN13FFTransformerIeE15bitReverseInt32Ej+0xa>
  22:	0f c8                	bswap  eax
  24:	5b                   	pop    ebx
  25:	c2 04 00             	ret    0x4
  28:	90                   	nop
  29:	90                   	nop
  2a:	90                   	nop
  2b:	90                   	nop
  2c:	90                   	nop
  2d:	90                   	nop
  2e:	90                   	nop
  2f:	90                   	nop

Disassembly of section .text$_ZN13FFTransformerIeE12arrayShuffleEP7ComplexIeEi:

00000000 <__ZN13FFTransformerIeE12arrayShuffleEP7ComplexIeEi>:
   0:	55                   	push   ebp
   1:	31 ed                	xor    ebp,ebp
   3:	57                   	push   edi
   4:	56                   	push   esi
   5:	53                   	push   ebx
   6:	8b 44 24 18          	mov    eax,DWORD PTR [esp+0x18]
   a:	0f bd 4c 24 18       	bsr    ecx,DWORD PTR [esp+0x18]
   f:	8b 7c 24 14          	mov    edi,DWORD PTR [esp+0x14]
  13:	83 f1 1f             	xor    ecx,0x1f
  16:	83 c1 01             	add    ecx,0x1
  19:	85 c0                	test   eax,eax
  1b:	7e 6e                	jle    8b <__ZN13FFTransformerIeE12arrayShuffleEP7ComplexIeEi+0x8b>
  1d:	8d 76 00             	lea    esi,[esi+0x0]
  20:	89 e8                	mov    eax,ebp
  22:	ba 04 00 00 00       	mov    edx,0x4
  27:	0f b6 d8             	movzx  ebx,al
  2a:	31 d8                	xor    eax,ebx
  2c:	89 c6                	mov    esi,eax
  2e:	0f b6 83 00 00 00 00 	movzx  eax,BYTE PTR [ebx+0x0]
  35:	09 f0                	or     eax,esi
  37:	c1 c8 08             	ror    eax,0x8
  3a:	83 ea 01             	sub    edx,0x1
  3d:	75 e8                	jne    27 <__ZN13FFTransformerIeE12arrayShuffleEP7ComplexIeEi+0x27>
  3f:	0f c8                	bswap  eax
  41:	d3 e8                	shr    eax,cl
  43:	39 c5                	cmp    ebp,eax
  45:	73 38                	jae    7f <__ZN13FFTransformerIeE12arrayShuffleEP7ComplexIeEi+0x7f>
  47:	8b 74 24 14          	mov    esi,DWORD PTR [esp+0x14]
  4b:	8d 04 40             	lea    eax,[eax+eax*2]
  4e:	db 2f                	fld    TBYTE PTR [edi]
  50:	8d 04 c6             	lea    eax,[esi+eax*8]
  53:	8b 10                	mov    edx,DWORD PTR [eax]
  55:	db 6f 0c             	fld    TBYTE PTR [edi+0xc]
  58:	d9 c9                	fxch   st(1)
  5a:	89 17                	mov    DWORD PTR [edi],edx
  5c:	8b 50 04             	mov    edx,DWORD PTR [eax+0x4]
  5f:	89 57 04             	mov    DWORD PTR [edi+0x4],edx
  62:	8b 50 08             	mov    edx,DWORD PTR [eax+0x8]
  65:	89 57 08             	mov    DWORD PTR [edi+0x8],edx
  68:	8b 50 0c             	mov    edx,DWORD PTR [eax+0xc]
  6b:	89 57 0c             	mov    DWORD PTR [edi+0xc],edx
  6e:	8b 50 10             	mov    edx,DWORD PTR [eax+0x10]
  71:	89 57 10             	mov    DWORD PTR [edi+0x10],edx
  74:	8b 50 14             	mov    edx,DWORD PTR [eax+0x14]
  77:	89 57 14             	mov    DWORD PTR [edi+0x14],edx
  7a:	db 38                	fstp   TBYTE PTR [eax]
  7c:	db 78 0c             	fstp   TBYTE PTR [eax+0xc]
  7f:	83 c5 01             	add    ebp,0x1
  82:	83 c7 18             	add    edi,0x18
  85:	3b 6c 24 18          	cmp    ebp,DWORD PTR [esp+0x18]
  89:	75 95                	jne    20 <__ZN13FFTransformerIeE12arrayShuffleEP7ComplexIeEi+0x20>
  8b:	5b                   	pop    ebx
  8c:	5e                   	pop    esi
  8d:	5f                   	pop    edi
  8e:	5d                   	pop    ebp
  8f:	c2 08 00             	ret    0x8
  92:	90                   	nop
  93:	90                   	nop
  94:	90                   	nop
  95:	90                   	nop
  96:	90                   	nop
  97:	90                   	nop
  98:	90                   	nop
  99:	90                   	nop
  9a:	90                   	nop
  9b:	90                   	nop
  9c:	90                   	nop
  9d:	90                   	nop
  9e:	90                   	nop
  9f:	90                   	nop

Disassembly of section .text$_ZN13FFTransformerIeEC2Ev:

00000000 <__ZN13FFTransformerIeEC2Ev>:
   0:	c7 01 08 00 00 00    	mov    DWORD PTR [ecx],0x8
   6:	c3                   	ret    
   7:	90                   	nop
   8:	90                   	nop
   9:	90                   	nop
   a:	90                   	nop
   b:	90                   	nop
   c:	90                   	nop
   d:	90                   	nop
   e:	90                   	nop
   f:	90                   	nop

Disassembly of section .text$_ZN13FFTransformerIeEC1Ev:

00000000 <__ZN13FFTransformerIeEC1Ev>:
   0:	c7 01 08 00 00 00    	mov    DWORD PTR [ecx],0x8
   6:	c3                   	ret    
   7:	90                   	nop
   8:	90                   	nop
   9:	90                   	nop
   a:	90                   	nop
   b:	90                   	nop
   c:	90                   	nop
   d:	90                   	nop
   e:	90                   	nop
   f:	90                   	nop

Disassembly of section .text$_ZN13FFTransformerIeEC2Eii:

00000000 <__ZN13FFTransformerIeEC2Eii>:
   0:	8b 44 24 04          	mov    eax,DWORD PTR [esp+0x4]
   4:	c7 01 08 00 00 00    	mov    DWORD PTR [ecx],0x8
   a:	85 c0                	test   eax,eax
   c:	7e 18                	jle    26 <__ZN13FFTransformerIeEC2Eii+0x26>
   e:	8d 50 ff             	lea    edx,[eax-0x1]
  11:	85 c2                	test   edx,eax
  13:	75 11                	jne    26 <__ZN13FFTransformerIeEC2Eii+0x26>
  15:	8b 54 24 08          	mov    edx,DWORD PTR [esp+0x8]
  19:	89 41 04             	mov    DWORD PTR [ecx+0x4],eax
  1c:	31 c0                	xor    eax,eax
  1e:	85 d2                	test   edx,edx
  20:	0f 9f c0             	setg   al
  23:	89 41 08             	mov    DWORD PTR [ecx+0x8],eax
  26:	c2 08 00             	ret    0x8
  29:	90                   	nop
  2a:	90                   	nop
  2b:	90                   	nop
  2c:	90                   	nop
  2d:	90                   	nop
  2e:	90                   	nop
  2f:	90                   	nop

Disassembly of section .text$_ZN13FFTransformerIeEC1Eii:

00000000 <__ZN13FFTransformerIeEC1Eii>:
   0:	8b 44 24 04          	mov    eax,DWORD PTR [esp+0x4]
   4:	c7 01 08 00 00 00    	mov    DWORD PTR [ecx],0x8
   a:	85 c0                	test   eax,eax
   c:	7e 18                	jle    26 <__ZN13FFTransformerIeEC1Eii+0x26>
   e:	8d 50 ff             	lea    edx,[eax-0x1]
  11:	85 c2                	test   edx,eax
  13:	75 11                	jne    26 <__ZN13FFTransformerIeEC1Eii+0x26>
  15:	8b 54 24 08          	mov    edx,DWORD PTR [esp+0x8]
  19:	89 41 04             	mov    DWORD PTR [ecx+0x4],eax
  1c:	31 c0                	xor    eax,eax
  1e:	85 d2                	test   edx,edx
  20:	0f 9f c0             	setg   al
  23:	89 41 08             	mov    DWORD PTR [ecx+0x8],eax
  26:	c2 08 00             	ret    0x8
  29:	90                   	nop
  2a:	90                   	nop
  2b:	90                   	nop
  2c:	90                   	nop
  2d:	90                   	nop
  2e:	90                   	nop
  2f:	90                   	nop

Disassembly of section .text$_ZN13FFTransformerIeED2Ev:

00000000 <__ZN13FFTransformerIeED2Ev>:
   0:	c7 01 08 00 00 00    	mov    DWORD PTR [ecx],0x8
   6:	c3                   	ret    
   7:	90                   	nop
   8:	90                   	nop
   9:	90                   	nop
   a:	90                   	nop
   b:	90                   	nop
   c:	90                   	nop
   d:	90                   	nop
   e:	90                   	nop
   f:	90                   	nop

Disassembly of section .text$_ZN13FFTransformerIeE7FFTInitEii:

00000000 <__ZN13FFTransformerIeE7FFTInitEii>:
   0:	53                   	push   ebx
   1:	8b 54 24 08          	mov    edx,DWORD PTR [esp+0x8]
   5:	31 c0                	xor    eax,eax
   7:	85 d2                	test   edx,edx
   9:	7e 1d                	jle    28 <__ZN13FFTransformerIeE7FFTInitEii+0x28>
   b:	8d 5a ff             	lea    ebx,[edx-0x1]
   e:	85 d3                	test   ebx,edx
  10:	75 16                	jne    28 <__ZN13FFTransformerIeE7FFTInitEii+0x28>
  12:	8b 5c 24 0c          	mov    ebx,DWORD PTR [esp+0xc]
  16:	31 c0                	xor    eax,eax
  18:	89 51 04             	mov    DWORD PTR [ecx+0x4],edx
  1b:	85 db                	test   ebx,ebx
  1d:	0f 9f c0             	setg   al
  20:	89 41 08             	mov    DWORD PTR [ecx+0x8],eax
  23:	b8 01 00 00 00       	mov    eax,0x1
  28:	5b                   	pop    ebx
  29:	c2 08 00             	ret    0x8
  2c:	90                   	nop
  2d:	90                   	nop
  2e:	90                   	nop
  2f:	90                   	nop

Disassembly of section .text$_ZN13FFTransformerIeE11FFTransformEP7ComplexIeE:

00000000 <__ZN13FFTransformerIeE11FFTransformEP7ComplexIeE>:
   0:	55                   	push   ebp
   1:	31 c0                	xor    eax,eax
   3:	89 e5                	mov    ebp,esp
   5:	57                   	push   edi
   6:	56                   	push   esi
   7:	53                   	push   ebx
   8:	89 cb                	mov    ebx,ecx
   a:	83 ec 5c             	sub    esp,0x5c
   d:	8b 51 04             	mov    edx,DWORD PTR [ecx+0x4]
  10:	85 d2                	test   edx,edx
  12:	0f 8e 36 01 00 00    	jle    14e <__ZN13FFTransformerIeE11FFTransformEP7ComplexIeE+0x14e>
  18:	8d 4a ff             	lea    ecx,[edx-0x1]
  1b:	85 d1                	test   ecx,edx
  1d:	0f 85 2b 01 00 00    	jne    14e <__ZN13FFTransformerIeE11FFTransformEP7ComplexIeE+0x14e>
  23:	8b 45 08             	mov    eax,DWORD PTR [ebp+0x8]
  26:	89 d9                	mov    ecx,ebx
  28:	89 54 24 04          	mov    DWORD PTR [esp+0x4],edx
  2c:	89 04 24             	mov    DWORD PTR [esp],eax
  2f:	e8 00 00 00 00       	call   34 <__ZN13FFTransformerIeE11FFTransformEP7ComplexIeE+0x34>
  34:	8b 7b 04             	mov    edi,DWORD PTR [ebx+0x4]
  37:	c7 45 a4 1f 00 00 00 	mov    DWORD PTR [ebp-0x5c],0x1f
  3e:	0f bd c7             	bsr    eax,edi
  41:	83 f0 1f             	xor    eax,0x1f
  44:	29 45 a4             	sub    DWORD PTR [ebp-0x5c],eax
  47:	83 ec 08             	sub    esp,0x8
  4a:	8b 75 a4             	mov    esi,DWORD PTR [ebp-0x5c]
  4d:	85 f6                	test   esi,esi
  4f:	0f 8e f4 00 00 00    	jle    149 <__ZN13FFTransformerIeE11FFTransformEP7ComplexIeE+0x149>
  55:	db 43 08             	fild   DWORD PTR [ebx+0x8]
  58:	dc 0d 00 00 00 00    	fmul   QWORD PTR ds:0x0
  5e:	c7 45 b0 00 00 00 00 	mov    DWORD PTR [ebp-0x50],0x0
  65:	c7 45 d8 01 00 00 00 	mov    DWORD PTR [ebp-0x28],0x1
  6c:	dd 5d a8             	fstp   QWORD PTR [ebp-0x58]
  6f:	8b 45 d8             	mov    eax,DWORD PTR [ebp-0x28]
  72:	8b 5d 08             	mov    ebx,DWORD PTR [ebp+0x8]
  75:	c7 45 e0 00 00 00 00 	mov    DWORD PTR [ebp-0x20],0x0
  7c:	8d 34 00             	lea    esi,[eax+eax*1]
  7f:	89 45 e4             	mov    DWORD PTR [ebp-0x1c],eax
  82:	89 5d dc             	mov    DWORD PTR [ebp-0x24],ebx
  85:	8d 1c 86             	lea    ebx,[esi+eax*4]
  88:	01 f0                	add    eax,esi
  8a:	db 45 e4             	fild   DWORD PTR [ebp-0x1c]
  8d:	c1 e0 03             	shl    eax,0x3
  90:	dd 5d b8             	fstp   QWORD PTR [ebp-0x48]
  93:	c1 e3 03             	shl    ebx,0x3
  96:	89 45 b4             	mov    DWORD PTR [ebp-0x4c],eax
  99:	8d b4 26 00 00 00 00 	lea    esi,[esi+eiz*1+0x0]
  a0:	db 45 e0             	fild   DWORD PTR [ebp-0x20]
  a3:	dc 4d a8             	fmul   QWORD PTR [ebp-0x58]
  a6:	dc 75 b8             	fdiv   QWORD PTR [ebp-0x48]
  a9:	dd 14 24             	fst    QWORD PTR [esp]
  ac:	dd 5d c0             	fstp   QWORD PTR [ebp-0x40]
  af:	e8 00 00 00 00       	call   b4 <__ZN13FFTransformerIeE11FFTransformEP7ComplexIeE+0xb4>
  b4:	db 7d c8             	fstp   TBYTE PTR [ebp-0x38]
  b7:	dd 45 c0             	fld    QWORD PTR [ebp-0x40]
  ba:	dd 1c 24             	fstp   QWORD PTR [esp]
  bd:	e8 00 00 00 00       	call   c2 <__ZN13FFTransformerIeE11FFTransformEP7ComplexIeE+0xc2>
  c2:	8b 4d dc             	mov    ecx,DWORD PTR [ebp-0x24]
  c5:	8b 55 b4             	mov    edx,DWORD PTR [ebp-0x4c]
  c8:	89 c8                	mov    eax,ecx
  ca:	01 ca                	add    edx,ecx
  cc:	8b 4d e0             	mov    ecx,DWORD PTR [ebp-0x20]
  cf:	db 6d c8             	fld    TBYTE PTR [ebp-0x38]
  d2:	39 cf                	cmp    edi,ecx
  d4:	7e 47                	jle    11d <__ZN13FFTransformerIeE11FFTransformEP7ComplexIeE+0x11d>
  d6:	db 2a                	fld    TBYTE PTR [edx]
  d8:	01 f1                	add    ecx,esi
  da:	db 6a 0c             	fld    TBYTE PTR [edx+0xc]
  dd:	d9 c1                	fld    st(1)
  df:	d8 cb                	fmul   st,st(3)
  e1:	d9 c1                	fld    st(1)
  e3:	d8 cd                	fmul   st,st(5)
  e5:	de e9                	fsubrp st(1),st
  e7:	d9 ca                	fxch   st(2)
  e9:	d8 cc                	fmul   st,st(4)
  eb:	d9 c9                	fxch   st(1)
  ed:	d8 cb                	fmul   st,st(3)
  ef:	de c1                	faddp  st(1),st
  f1:	db 28                	fld    TBYTE PTR [eax]
  f3:	d8 e2                	fsub   st,st(2)
  f5:	db 3a                	fstp   TBYTE PTR [edx]
  f7:	db 68 0c             	fld    TBYTE PTR [eax+0xc]
  fa:	d8 e1                	fsub   st,st(1)
  fc:	db 7a 0c             	fstp   TBYTE PTR [edx+0xc]
  ff:	01 da                	add    edx,ebx
 101:	db 28                	fld    TBYTE PTR [eax]
 103:	de c2                	faddp  st(2),st
 105:	d9 c9                	fxch   st(1)
 107:	db 38                	fstp   TBYTE PTR [eax]
 109:	db 68 0c             	fld    TBYTE PTR [eax+0xc]
 10c:	de c1                	faddp  st(1),st
 10e:	db 78 0c             	fstp   TBYTE PTR [eax+0xc]
 111:	01 d8                	add    eax,ebx
 113:	39 cf                	cmp    edi,ecx
 115:	7f bf                	jg     d6 <__ZN13FFTransformerIeE11FFTransformEP7ComplexIeE+0xd6>
 117:	dd d8                	fstp   st(0)
 119:	dd d8                	fstp   st(0)
 11b:	eb 04                	jmp    121 <__ZN13FFTransformerIeE11FFTransformEP7ComplexIeE+0x121>
 11d:	dd d8                	fstp   st(0)
 11f:	dd d8                	fstp   st(0)
 121:	83 45 e0 01          	add    DWORD PTR [ebp-0x20],0x1
 125:	8b 45 e0             	mov    eax,DWORD PTR [ebp-0x20]
 128:	83 45 dc 18          	add    DWORD PTR [ebp-0x24],0x18
 12c:	39 45 d8             	cmp    DWORD PTR [ebp-0x28],eax
 12f:	0f 8f 6b ff ff ff    	jg     a0 <__ZN13FFTransformerIeE11FFTransformEP7ComplexIeE+0xa0>
 135:	83 45 b0 01          	add    DWORD PTR [ebp-0x50],0x1
 139:	8b 45 a4             	mov    eax,DWORD PTR [ebp-0x5c]
 13c:	39 45 b0             	cmp    DWORD PTR [ebp-0x50],eax
 13f:	74 08                	je     149 <__ZN13FFTransformerIeE11FFTransformEP7ComplexIeE+0x149>
 141:	89 75 d8             	mov    DWORD PTR [ebp-0x28],esi
 144:	e9 26 ff ff ff       	jmp    6f <__ZN13FFTransformerIeE11FFTransformEP7ComplexIeE+0x6f>
 149:	b8 01 00 00 00       	mov    eax,0x1
 14e:	8d 65 f4             	lea    esp,[ebp-0xc]
 151:	5b                   	pop    ebx
 152:	5e                   	pop    esi
 153:	5f                   	pop    edi
 154:	5d                   	pop    ebp
 155:	c2 04 00             	ret    0x4
 158:	90                   	nop
 159:	90                   	nop
 15a:	90                   	nop
 15b:	90                   	nop
 15c:	90                   	nop
 15d:	90                   	nop
 15e:	90                   	nop
 15f:	90                   	nop
