
obj/release/FFTransformer.o:     file format pe-i386


Disassembly of section .text$_ZN13FFTransformerIfED1Ev:

00000000 <__ZN13FFTransformerIfED1Ev>:
   0:	c7 01 08 00 00 00    	mov    DWORD PTR [ecx],0x8
   6:	c3                   	ret    
   7:	90                   	nop
   8:	90                   	nop
   9:	90                   	nop
   a:	90                   	nop
   b:	90                   	nop
   c:	90                   	nop
   d:	90                   	nop
   e:	90                   	nop
   f:	90                   	nop

Disassembly of section .text$_ZN13FFTransformerIdED1Ev:

00000000 <__ZN13FFTransformerIdED1Ev>:
   0:	c7 01 08 00 00 00    	mov    DWORD PTR [ecx],0x8
   6:	c3                   	ret    
   7:	90                   	nop
   8:	90                   	nop
   9:	90                   	nop
   a:	90                   	nop
   b:	90                   	nop
   c:	90                   	nop
   d:	90                   	nop
   e:	90                   	nop
   f:	90                   	nop

Disassembly of section .text$_ZN13FFTransformerIeED1Ev:

00000000 <__ZN13FFTransformerIeED1Ev>:
   0:	c7 01 08 00 00 00    	mov    DWORD PTR [ecx],0x8
   6:	c3                   	ret    
   7:	90                   	nop
   8:	90                   	nop
   9:	90                   	nop
   a:	90                   	nop
   b:	90                   	nop
   c:	90                   	nop
   d:	90                   	nop
   e:	90                   	nop
   f:	90                   	nop

Disassembly of section .text$_ZN13FFTransformerIfED0Ev:

00000000 <__ZN13FFTransformerIfED0Ev>:
   0:	83 ec 1c             	sub    esp,0x1c
   3:	89 0c 24             	mov    DWORD PTR [esp],ecx
   6:	c7 01 08 00 00 00    	mov    DWORD PTR [ecx],0x8
   c:	e8 00 00 00 00       	call   11 <__ZN13FFTransformerIfED0Ev+0x11>
  11:	83 c4 1c             	add    esp,0x1c
  14:	c3                   	ret    
  15:	90                   	nop
  16:	90                   	nop
  17:	90                   	nop
  18:	90                   	nop
  19:	90                   	nop
  1a:	90                   	nop
  1b:	90                   	nop
  1c:	90                   	nop
  1d:	90                   	nop
  1e:	90                   	nop
  1f:	90                   	nop

Disassembly of section .text$_ZN13FFTransformerIdED0Ev:

00000000 <__ZN13FFTransformerIdED0Ev>:
   0:	83 ec 1c             	sub    esp,0x1c
   3:	89 0c 24             	mov    DWORD PTR [esp],ecx
   6:	c7 01 08 00 00 00    	mov    DWORD PTR [ecx],0x8
   c:	e8 00 00 00 00       	call   11 <__ZN13FFTransformerIdED0Ev+0x11>
  11:	83 c4 1c             	add    esp,0x1c
  14:	c3                   	ret    
  15:	90                   	nop
  16:	90                   	nop
  17:	90                   	nop
  18:	90                   	nop
  19:	90                   	nop
  1a:	90                   	nop
  1b:	90                   	nop
  1c:	90                   	nop
  1d:	90                   	nop
  1e:	90                   	nop
  1f:	90                   	nop

Disassembly of section .text$_ZN13FFTransformerIeED0Ev:

00000000 <__ZN13FFTransformerIeED0Ev>:
   0:	83 ec 1c             	sub    esp,0x1c
   3:	89 0c 24             	mov    DWORD PTR [esp],ecx
   6:	c7 01 08 00 00 00    	mov    DWORD PTR [ecx],0x8
   c:	e8 00 00 00 00       	call   11 <__ZN13FFTransformerIeED0Ev+0x11>
  11:	83 c4 1c             	add    esp,0x1c
  14:	c3                   	ret    
  15:	90                   	nop
  16:	90                   	nop
  17:	90                   	nop
  18:	90                   	nop
  19:	90                   	nop
  1a:	90                   	nop
  1b:	90                   	nop
  1c:	90                   	nop
  1d:	90                   	nop
  1e:	90                   	nop
  1f:	90                   	nop

Disassembly of section .text$_ZN13FFTransformerIfE12isPowerOfTwoEj:

00000000 <__ZN13FFTransformerIfE12isPowerOfTwoEj>:
   0:	8b 44 24 04          	mov    eax,DWORD PTR [esp+0x4]
   4:	8d 50 ff             	lea    edx,[eax-0x1]
   7:	85 c2                	test   edx,eax
   9:	0f 94 c0             	sete   al
   c:	c2 04 00             	ret    0x4
   f:	90                   	nop

Disassembly of section .text$_ZN13FFTransformerIfE13getPowerOfTwoEj:

00000000 <__ZN13FFTransformerIfE13getPowerOfTwoEj>:
   0:	0f bd 54 24 04       	bsr    edx,DWORD PTR [esp+0x4]
   5:	b8 1f 00 00 00       	mov    eax,0x1f
   a:	83 f2 1f             	xor    edx,0x1f
   d:	29 d0                	sub    eax,edx
   f:	c2 04 00             	ret    0x4
  12:	90                   	nop
  13:	90                   	nop
  14:	90                   	nop
  15:	90                   	nop
  16:	90                   	nop
  17:	90                   	nop
  18:	90                   	nop
  19:	90                   	nop
  1a:	90                   	nop
  1b:	90                   	nop
  1c:	90                   	nop
  1d:	90                   	nop
  1e:	90                   	nop
  1f:	90                   	nop

Disassembly of section .text$_ZN13FFTransformerIfE15bitReverseInt32Ej:

00000000 <__ZN13FFTransformerIfE15bitReverseInt32Ej>:
   0:	57                   	push   edi
   1:	b9 40 00 00 00       	mov    ecx,0x40
   6:	56                   	push   esi
   7:	be 00 00 00 00       	mov    esi,0x0
   c:	81 ec 00 01 00 00    	sub    esp,0x100
  12:	8b 84 24 0c 01 00 00 	mov    eax,DWORD PTR [esp+0x10c]
  19:	89 e7                	mov    edi,esp
  1b:	f3 a5                	rep movs DWORD PTR es:[edi],DWORD PTR ds:[esi]
  1d:	0f b6 d0             	movzx  edx,al
  20:	8a 04 14             	mov    al,BYTE PTR [esp+edx*1]
  23:	0f b6 d4             	movzx  edx,ah
  26:	0f b6 14 14          	movzx  edx,BYTE PTR [esp+edx*1]
  2a:	88 d4                	mov    ah,dl
  2c:	89 c2                	mov    edx,eax
  2e:	25 ff ff 00 ff       	and    eax,0xff00ffff
  33:	c1 ea 10             	shr    edx,0x10
  36:	0f b6 d2             	movzx  edx,dl
  39:	0f b6 14 14          	movzx  edx,BYTE PTR [esp+edx*1]
  3d:	c1 e2 10             	shl    edx,0x10
  40:	09 d0                	or     eax,edx
  42:	89 c2                	mov    edx,eax
  44:	25 ff ff ff 00       	and    eax,0xffffff
  49:	c1 ea 18             	shr    edx,0x18
  4c:	0f b6 14 14          	movzx  edx,BYTE PTR [esp+edx*1]
  50:	81 c4 00 01 00 00    	add    esp,0x100
  56:	5e                   	pop    esi
  57:	5f                   	pop    edi
  58:	c1 e2 18             	shl    edx,0x18
  5b:	09 d0                	or     eax,edx
  5d:	0f c8                	bswap  eax
  5f:	c2 04 00             	ret    0x4
  62:	90                   	nop
  63:	90                   	nop
  64:	90                   	nop
  65:	90                   	nop
  66:	90                   	nop
  67:	90                   	nop
  68:	90                   	nop
  69:	90                   	nop
  6a:	90                   	nop
  6b:	90                   	nop
  6c:	90                   	nop
  6d:	90                   	nop
  6e:	90                   	nop
  6f:	90                   	nop

Disassembly of section .text$_ZN13FFTransformerIfE12arrayShuffleEP7ComplexIfEi:

00000000 <__ZN13FFTransformerIfE12arrayShuffleEP7ComplexIfEi>:
   0:	55                   	push   ebp
   1:	89 e5                	mov    ebp,esp
   3:	57                   	push   edi
   4:	89 cf                	mov    edi,ecx
   6:	56                   	push   esi
   7:	53                   	push   ebx
   8:	31 db                	xor    ebx,ebx
   a:	83 ec 08             	sub    esp,0x8
   d:	8b 75 08             	mov    esi,DWORD PTR [ebp+0x8]
  10:	0f bd 45 0c          	bsr    eax,DWORD PTR [ebp+0xc]
  14:	83 f0 1f             	xor    eax,0x1f
  17:	83 c0 01             	add    eax,0x1
  1a:	89 45 f0             	mov    DWORD PTR [ebp-0x10],eax
  1d:	8b 45 0c             	mov    eax,DWORD PTR [ebp+0xc]
  20:	85 c0                	test   eax,eax
  22:	7e 3e                	jle    62 <__ZN13FFTransformerIfE12arrayShuffleEP7ComplexIfEi+0x62>
  24:	89 f9                	mov    ecx,edi
  26:	89 1c 24             	mov    DWORD PTR [esp],ebx
  29:	e8 00 00 00 00       	call   2e <__ZN13FFTransformerIfE12arrayShuffleEP7ComplexIfEi+0x2e>
  2e:	0f b6 4d f0          	movzx  ecx,BYTE PTR [ebp-0x10]
  32:	d3 e8                	shr    eax,cl
  34:	83 ec 04             	sub    esp,0x4
  37:	39 c3                	cmp    ebx,eax
  39:	73 1c                	jae    57 <__ZN13FFTransformerIfE12arrayShuffleEP7ComplexIfEi+0x57>
  3b:	8b 55 08             	mov    edx,DWORD PTR [ebp+0x8]
  3e:	d9 06                	fld    DWORD PTR [esi]
  40:	d9 46 04             	fld    DWORD PTR [esi+0x4]
  43:	d9 c9                	fxch   st(1)
  45:	8d 04 c2             	lea    eax,[edx+eax*8]
  48:	8b 10                	mov    edx,DWORD PTR [eax]
  4a:	8b 48 04             	mov    ecx,DWORD PTR [eax+0x4]
  4d:	89 16                	mov    DWORD PTR [esi],edx
  4f:	89 4e 04             	mov    DWORD PTR [esi+0x4],ecx
  52:	d9 18                	fstp   DWORD PTR [eax]
  54:	d9 58 04             	fstp   DWORD PTR [eax+0x4]
  57:	83 c3 01             	add    ebx,0x1
  5a:	83 c6 08             	add    esi,0x8
  5d:	3b 5d 0c             	cmp    ebx,DWORD PTR [ebp+0xc]
  60:	75 c2                	jne    24 <__ZN13FFTransformerIfE12arrayShuffleEP7ComplexIfEi+0x24>
  62:	8d 65 f4             	lea    esp,[ebp-0xc]
  65:	5b                   	pop    ebx
  66:	5e                   	pop    esi
  67:	5f                   	pop    edi
  68:	5d                   	pop    ebp
  69:	c2 08 00             	ret    0x8
  6c:	90                   	nop
  6d:	90                   	nop
  6e:	90                   	nop
  6f:	90                   	nop

Disassembly of section .text$_ZN13FFTransformerIfEC2Ev:

00000000 <__ZN13FFTransformerIfEC2Ev>:
   0:	c7 01 08 00 00 00    	mov    DWORD PTR [ecx],0x8
   6:	c3                   	ret    
   7:	90                   	nop
   8:	90                   	nop
   9:	90                   	nop
   a:	90                   	nop
   b:	90                   	nop
   c:	90                   	nop
   d:	90                   	nop
   e:	90                   	nop
   f:	90                   	nop

Disassembly of section .text$_ZN13FFTransformerIfEC1Ev:

00000000 <__ZN13FFTransformerIfEC1Ev>:
   0:	c7 01 08 00 00 00    	mov    DWORD PTR [ecx],0x8
   6:	c3                   	ret    
   7:	90                   	nop
   8:	90                   	nop
   9:	90                   	nop
   a:	90                   	nop
   b:	90                   	nop
   c:	90                   	nop
   d:	90                   	nop
   e:	90                   	nop
   f:	90                   	nop

Disassembly of section .text$_ZN13FFTransformerIfEC2Eii:

00000000 <__ZN13FFTransformerIfEC2Eii>:
   0:	8b 44 24 04          	mov    eax,DWORD PTR [esp+0x4]
   4:	c7 01 08 00 00 00    	mov    DWORD PTR [ecx],0x8
   a:	85 c0                	test   eax,eax
   c:	7e 18                	jle    26 <__ZN13FFTransformerIfEC2Eii+0x26>
   e:	8d 50 ff             	lea    edx,[eax-0x1]
  11:	85 c2                	test   edx,eax
  13:	75 11                	jne    26 <__ZN13FFTransformerIfEC2Eii+0x26>
  15:	8b 54 24 08          	mov    edx,DWORD PTR [esp+0x8]
  19:	89 41 04             	mov    DWORD PTR [ecx+0x4],eax
  1c:	31 c0                	xor    eax,eax
  1e:	85 d2                	test   edx,edx
  20:	0f 9f c0             	setg   al
  23:	89 41 08             	mov    DWORD PTR [ecx+0x8],eax
  26:	c2 08 00             	ret    0x8
  29:	90                   	nop
  2a:	90                   	nop
  2b:	90                   	nop
  2c:	90                   	nop
  2d:	90                   	nop
  2e:	90                   	nop
  2f:	90                   	nop

Disassembly of section .text$_ZN13FFTransformerIfEC1Eii:

00000000 <__ZN13FFTransformerIfEC1Eii>:
   0:	8b 44 24 04          	mov    eax,DWORD PTR [esp+0x4]
   4:	c7 01 08 00 00 00    	mov    DWORD PTR [ecx],0x8
   a:	85 c0                	test   eax,eax
   c:	7e 18                	jle    26 <__ZN13FFTransformerIfEC1Eii+0x26>
   e:	8d 50 ff             	lea    edx,[eax-0x1]
  11:	85 c2                	test   edx,eax
  13:	75 11                	jne    26 <__ZN13FFTransformerIfEC1Eii+0x26>
  15:	8b 54 24 08          	mov    edx,DWORD PTR [esp+0x8]
  19:	89 41 04             	mov    DWORD PTR [ecx+0x4],eax
  1c:	31 c0                	xor    eax,eax
  1e:	85 d2                	test   edx,edx
  20:	0f 9f c0             	setg   al
  23:	89 41 08             	mov    DWORD PTR [ecx+0x8],eax
  26:	c2 08 00             	ret    0x8
  29:	90                   	nop
  2a:	90                   	nop
  2b:	90                   	nop
  2c:	90                   	nop
  2d:	90                   	nop
  2e:	90                   	nop
  2f:	90                   	nop

Disassembly of section .text$_ZN13FFTransformerIfED2Ev:

00000000 <__ZN13FFTransformerIfED2Ev>:
   0:	c7 01 08 00 00 00    	mov    DWORD PTR [ecx],0x8
   6:	c3                   	ret    
   7:	90                   	nop
   8:	90                   	nop
   9:	90                   	nop
   a:	90                   	nop
   b:	90                   	nop
   c:	90                   	nop
   d:	90                   	nop
   e:	90                   	nop
   f:	90                   	nop

Disassembly of section .text$_ZN13FFTransformerIfE7FFTInitEii:

00000000 <__ZN13FFTransformerIfE7FFTInitEii>:
   0:	53                   	push   ebx
   1:	8b 54 24 08          	mov    edx,DWORD PTR [esp+0x8]
   5:	31 c0                	xor    eax,eax
   7:	85 d2                	test   edx,edx
   9:	7e 1d                	jle    28 <__ZN13FFTransformerIfE7FFTInitEii+0x28>
   b:	8d 5a ff             	lea    ebx,[edx-0x1]
   e:	85 d3                	test   ebx,edx
  10:	75 16                	jne    28 <__ZN13FFTransformerIfE7FFTInitEii+0x28>
  12:	8b 5c 24 0c          	mov    ebx,DWORD PTR [esp+0xc]
  16:	31 c0                	xor    eax,eax
  18:	89 51 04             	mov    DWORD PTR [ecx+0x4],edx
  1b:	85 db                	test   ebx,ebx
  1d:	0f 9f c0             	setg   al
  20:	89 41 08             	mov    DWORD PTR [ecx+0x8],eax
  23:	b8 01 00 00 00       	mov    eax,0x1
  28:	5b                   	pop    ebx
  29:	c2 08 00             	ret    0x8
  2c:	90                   	nop
  2d:	90                   	nop
  2e:	90                   	nop
  2f:	90                   	nop

Disassembly of section .text$_ZN13FFTransformerIfE11FFTransformEP7ComplexIfE:

00000000 <__ZN13FFTransformerIfE11FFTransformEP7ComplexIfE>:
   0:	55                   	push   ebp
   1:	31 c0                	xor    eax,eax
   3:	89 e5                	mov    ebp,esp
   5:	57                   	push   edi
   6:	56                   	push   esi
   7:	53                   	push   ebx
   8:	89 cb                	mov    ebx,ecx
   a:	83 ec 4c             	sub    esp,0x4c
   d:	8b 51 04             	mov    edx,DWORD PTR [ecx+0x4]
  10:	85 d2                	test   edx,edx
  12:	0f 8e 6a 01 00 00    	jle    182 <__ZN13FFTransformerIfE11FFTransformEP7ComplexIfE+0x182>
  18:	8d 4a ff             	lea    ecx,[edx-0x1]
  1b:	85 d1                	test   ecx,edx
  1d:	0f 85 5f 01 00 00    	jne    182 <__ZN13FFTransformerIfE11FFTransformEP7ComplexIfE+0x182>
  23:	8b 45 08             	mov    eax,DWORD PTR [ebp+0x8]
  26:	89 d9                	mov    ecx,ebx
  28:	89 54 24 04          	mov    DWORD PTR [esp+0x4],edx
  2c:	89 04 24             	mov    DWORD PTR [esp],eax
  2f:	e8 00 00 00 00       	call   34 <__ZN13FFTransformerIfE11FFTransformEP7ComplexIfE+0x34>
  34:	8b 7b 04             	mov    edi,DWORD PTR [ebx+0x4]
  37:	c7 45 b0 1f 00 00 00 	mov    DWORD PTR [ebp-0x50],0x1f
  3e:	0f bd c7             	bsr    eax,edi
  41:	83 f0 1f             	xor    eax,0x1f
  44:	29 45 b0             	sub    DWORD PTR [ebp-0x50],eax
  47:	83 ec 08             	sub    esp,0x8
  4a:	8b 75 b0             	mov    esi,DWORD PTR [ebp-0x50]
  4d:	85 f6                	test   esi,esi
  4f:	0f 8e f0 00 00 00    	jle    145 <__ZN13FFTransformerIfE11FFTransformEP7ComplexIfE+0x145>
  55:	db 43 08             	fild   DWORD PTR [ebx+0x8]
  58:	b9 01 00 00 00       	mov    ecx,0x1
  5d:	dc 0d 08 00 00 00    	fmul   QWORD PTR ds:0x8
  63:	89 cb                	mov    ebx,ecx
  65:	c7 45 b4 00 00 00 00 	mov    DWORD PTR [ebp-0x4c],0x0
  6c:	dd 5d b8             	fstp   QWORD PTR [ebp-0x48]
  6f:	8b 45 08             	mov    eax,DWORD PTR [ebp+0x8]
  72:	89 d9                	mov    ecx,ebx
  74:	89 5d e0             	mov    DWORD PTR [ebp-0x20],ebx
  77:	c1 e1 04             	shl    ecx,0x4
  7a:	db 45 e0             	fild   DWORD PTR [ebp-0x20]
  7d:	8d 34 1b             	lea    esi,[ebx+ebx*1]
  80:	dd 5d c0             	fstp   QWORD PTR [ebp-0x40]
  83:	89 45 d8             	mov    DWORD PTR [ebp-0x28],eax
  86:	c7 45 dc 00 00 00 00 	mov    DWORD PTR [ebp-0x24],0x0
  8d:	89 4d d0             	mov    DWORD PTR [ebp-0x30],ecx
  90:	db 45 dc             	fild   DWORD PTR [ebp-0x24]
  93:	dc 4d b8             	fmul   QWORD PTR [ebp-0x48]
  96:	dc 75 c0             	fdiv   QWORD PTR [ebp-0x40]
  99:	d9 5d e4             	fstp   DWORD PTR [ebp-0x1c]
  9c:	d9 45 e4             	fld    DWORD PTR [ebp-0x1c]
  9f:	d9 c0                	fld    st(0)
  a1:	dd 5d c8             	fstp   QWORD PTR [ebp-0x38]
  a4:	dd 1c 24             	fstp   QWORD PTR [esp]
  a7:	e8 00 00 00 00       	call   ac <__ZN13FFTransformerIfE11FFTransformEP7ComplexIfE+0xac>
  ac:	d9 5d e4             	fstp   DWORD PTR [ebp-0x1c]
  af:	d9 45 e4             	fld    DWORD PTR [ebp-0x1c]
  b2:	d9 5d d4             	fstp   DWORD PTR [ebp-0x2c]
  b5:	dd 45 c8             	fld    QWORD PTR [ebp-0x38]
  b8:	dd 1c 24             	fstp   QWORD PTR [esp]
  bb:	e8 00 00 00 00       	call   c0 <__ZN13FFTransformerIfE11FFTransformEP7ComplexIfE+0xc0>
  c0:	8b 4d dc             	mov    ecx,DWORD PTR [ebp-0x24]
  c3:	8b 45 d8             	mov    eax,DWORD PTR [ebp-0x28]
  c6:	39 cf                	cmp    edi,ecx
  c8:	89 ca                	mov    edx,ecx
  ca:	d9 5d e4             	fstp   DWORD PTR [ebp-0x1c]
  cd:	d9 45 e4             	fld    DWORD PTR [ebp-0x1c]
  d0:	d9 45 d4             	fld    DWORD PTR [ebp-0x2c]
  d3:	7e 48                	jle    11d <__ZN13FFTransformerIfE11FFTransformEP7ComplexIfE+0x11d>
  d5:	8b 4d d0             	mov    ecx,DWORD PTR [ebp-0x30]
  d8:	d9 04 d8             	fld    DWORD PTR [eax+ebx*8]
  db:	01 f2                	add    edx,esi
  dd:	d9 44 d8 04          	fld    DWORD PTR [eax+ebx*8+0x4]
  e1:	d9 c1                	fld    st(1)
  e3:	d8 cb                	fmul   st,st(3)
  e5:	d9 c1                	fld    st(1)
  e7:	d8 cd                	fmul   st,st(5)
  e9:	de e9                	fsubrp st(1),st
  eb:	d9 ca                	fxch   st(2)
  ed:	d8 cc                	fmul   st,st(4)
  ef:	d9 c9                	fxch   st(1)
  f1:	d8 cb                	fmul   st,st(3)
  f3:	de c1                	faddp  st(1),st
  f5:	d9 c1                	fld    st(1)
  f7:	d8 28                	fsubr  DWORD PTR [eax]
  f9:	d9 1c d8             	fstp   DWORD PTR [eax+ebx*8]
  fc:	d9 c0                	fld    st(0)
  fe:	d8 68 04             	fsubr  DWORD PTR [eax+0x4]
 101:	d9 5c d8 04          	fstp   DWORD PTR [eax+ebx*8+0x4]
 105:	d9 c9                	fxch   st(1)
 107:	d8 00                	fadd   DWORD PTR [eax]
 109:	d9 18                	fstp   DWORD PTR [eax]
 10b:	d8 40 04             	fadd   DWORD PTR [eax+0x4]
 10e:	d9 58 04             	fstp   DWORD PTR [eax+0x4]
 111:	01 c8                	add    eax,ecx
 113:	39 d7                	cmp    edi,edx
 115:	7f c1                	jg     d8 <__ZN13FFTransformerIfE11FFTransformEP7ComplexIfE+0xd8>
 117:	dd d8                	fstp   st(0)
 119:	dd d8                	fstp   st(0)
 11b:	eb 04                	jmp    121 <__ZN13FFTransformerIfE11FFTransformEP7ComplexIfE+0x121>
 11d:	dd d8                	fstp   st(0)
 11f:	dd d8                	fstp   st(0)
 121:	83 45 dc 01          	add    DWORD PTR [ebp-0x24],0x1
 125:	83 45 d8 08          	add    DWORD PTR [ebp-0x28],0x8
 129:	39 5d dc             	cmp    DWORD PTR [ebp-0x24],ebx
 12c:	0f 8c 5e ff ff ff    	jl     90 <__ZN13FFTransformerIfE11FFTransformEP7ComplexIfE+0x90>
 132:	83 45 b4 01          	add    DWORD PTR [ebp-0x4c],0x1
 136:	8b 45 b0             	mov    eax,DWORD PTR [ebp-0x50]
 139:	39 45 b4             	cmp    DWORD PTR [ebp-0x4c],eax
 13c:	74 07                	je     145 <__ZN13FFTransformerIfE11FFTransformEP7ComplexIfE+0x145>
 13e:	89 f3                	mov    ebx,esi
 140:	e9 2a ff ff ff       	jmp    6f <__ZN13FFTransformerIfE11FFTransformEP7ComplexIfE+0x6f>
 145:	89 7d e0             	mov    DWORD PTR [ebp-0x20],edi
 148:	8b 45 08             	mov    eax,DWORD PTR [ebp+0x8]
 14b:	85 ff                	test   edi,edi
 14d:	db 45 e0             	fild   DWORD PTR [ebp-0x20]
 150:	d8 3d 00 00 00 00    	fdivr  DWORD PTR ds:0x0
 156:	8d 14 f8             	lea    edx,[eax+edi*8]
 159:	d9 5d e4             	fstp   DWORD PTR [ebp-0x1c]
 15c:	d9 45 e4             	fld    DWORD PTR [ebp-0x1c]
 15f:	7e 1a                	jle    17b <__ZN13FFTransformerIfE11FFTransformEP7ComplexIfE+0x17b>
 161:	d9 00                	fld    DWORD PTR [eax]
 163:	83 c0 08             	add    eax,0x8
 166:	d8 c9                	fmul   st,st(1)
 168:	d9 58 f8             	fstp   DWORD PTR [eax-0x8]
 16b:	d9 40 fc             	fld    DWORD PTR [eax-0x4]
 16e:	d8 c9                	fmul   st,st(1)
 170:	d9 58 fc             	fstp   DWORD PTR [eax-0x4]
 173:	39 d0                	cmp    eax,edx
 175:	75 ea                	jne    161 <__ZN13FFTransformerIfE11FFTransformEP7ComplexIfE+0x161>
 177:	dd d8                	fstp   st(0)
 179:	eb 02                	jmp    17d <__ZN13FFTransformerIfE11FFTransformEP7ComplexIfE+0x17d>
 17b:	dd d8                	fstp   st(0)
 17d:	b8 01 00 00 00       	mov    eax,0x1
 182:	8d 65 f4             	lea    esp,[ebp-0xc]
 185:	5b                   	pop    ebx
 186:	5e                   	pop    esi
 187:	5f                   	pop    edi
 188:	5d                   	pop    ebp
 189:	c2 04 00             	ret    0x4
 18c:	90                   	nop
 18d:	90                   	nop
 18e:	90                   	nop
 18f:	90                   	nop

Disassembly of section .text$_ZN13FFTransformerIdE12isPowerOfTwoEj:

00000000 <__ZN13FFTransformerIdE12isPowerOfTwoEj>:
   0:	8b 44 24 04          	mov    eax,DWORD PTR [esp+0x4]
   4:	8d 50 ff             	lea    edx,[eax-0x1]
   7:	85 c2                	test   edx,eax
   9:	0f 94 c0             	sete   al
   c:	c2 04 00             	ret    0x4
   f:	90                   	nop

Disassembly of section .text$_ZN13FFTransformerIdE13getPowerOfTwoEj:

00000000 <__ZN13FFTransformerIdE13getPowerOfTwoEj>:
   0:	0f bd 54 24 04       	bsr    edx,DWORD PTR [esp+0x4]
   5:	b8 1f 00 00 00       	mov    eax,0x1f
   a:	83 f2 1f             	xor    edx,0x1f
   d:	29 d0                	sub    eax,edx
   f:	c2 04 00             	ret    0x4
  12:	90                   	nop
  13:	90                   	nop
  14:	90                   	nop
  15:	90                   	nop
  16:	90                   	nop
  17:	90                   	nop
  18:	90                   	nop
  19:	90                   	nop
  1a:	90                   	nop
  1b:	90                   	nop
  1c:	90                   	nop
  1d:	90                   	nop
  1e:	90                   	nop
  1f:	90                   	nop

Disassembly of section .text$_ZN13FFTransformerIdE15bitReverseInt32Ej:

00000000 <__ZN13FFTransformerIdE15bitReverseInt32Ej>:
   0:	57                   	push   edi
   1:	b9 40 00 00 00       	mov    ecx,0x40
   6:	56                   	push   esi
   7:	be 00 00 00 00       	mov    esi,0x0
   c:	81 ec 00 01 00 00    	sub    esp,0x100
  12:	8b 84 24 0c 01 00 00 	mov    eax,DWORD PTR [esp+0x10c]
  19:	89 e7                	mov    edi,esp
  1b:	f3 a5                	rep movs DWORD PTR es:[edi],DWORD PTR ds:[esi]
  1d:	0f b6 d0             	movzx  edx,al
  20:	8a 04 14             	mov    al,BYTE PTR [esp+edx*1]
  23:	0f b6 d4             	movzx  edx,ah
  26:	0f b6 14 14          	movzx  edx,BYTE PTR [esp+edx*1]
  2a:	88 d4                	mov    ah,dl
  2c:	89 c2                	mov    edx,eax
  2e:	25 ff ff 00 ff       	and    eax,0xff00ffff
  33:	c1 ea 10             	shr    edx,0x10
  36:	0f b6 d2             	movzx  edx,dl
  39:	0f b6 14 14          	movzx  edx,BYTE PTR [esp+edx*1]
  3d:	c1 e2 10             	shl    edx,0x10
  40:	09 d0                	or     eax,edx
  42:	89 c2                	mov    edx,eax
  44:	25 ff ff ff 00       	and    eax,0xffffff
  49:	c1 ea 18             	shr    edx,0x18
  4c:	0f b6 14 14          	movzx  edx,BYTE PTR [esp+edx*1]
  50:	81 c4 00 01 00 00    	add    esp,0x100
  56:	5e                   	pop    esi
  57:	5f                   	pop    edi
  58:	c1 e2 18             	shl    edx,0x18
  5b:	09 d0                	or     eax,edx
  5d:	0f c8                	bswap  eax
  5f:	c2 04 00             	ret    0x4
  62:	90                   	nop
  63:	90                   	nop
  64:	90                   	nop
  65:	90                   	nop
  66:	90                   	nop
  67:	90                   	nop
  68:	90                   	nop
  69:	90                   	nop
  6a:	90                   	nop
  6b:	90                   	nop
  6c:	90                   	nop
  6d:	90                   	nop
  6e:	90                   	nop
  6f:	90                   	nop

Disassembly of section .text$_ZN13FFTransformerIdE12arrayShuffleEP7ComplexIdEi:

00000000 <__ZN13FFTransformerIdE12arrayShuffleEP7ComplexIdEi>:
   0:	55                   	push   ebp
   1:	89 e5                	mov    ebp,esp
   3:	57                   	push   edi
   4:	89 cf                	mov    edi,ecx
   6:	56                   	push   esi
   7:	53                   	push   ebx
   8:	31 db                	xor    ebx,ebx
   a:	83 ec 0c             	sub    esp,0xc
   d:	8b 75 08             	mov    esi,DWORD PTR [ebp+0x8]
  10:	0f bd 45 0c          	bsr    eax,DWORD PTR [ebp+0xc]
  14:	83 f0 1f             	xor    eax,0x1f
  17:	83 c0 01             	add    eax,0x1
  1a:	89 45 ec             	mov    DWORD PTR [ebp-0x14],eax
  1d:	8b 45 0c             	mov    eax,DWORD PTR [ebp+0xc]
  20:	85 c0                	test   eax,eax
  22:	7e 4a                	jle    6e <__ZN13FFTransformerIdE12arrayShuffleEP7ComplexIdEi+0x6e>
  24:	89 f9                	mov    ecx,edi
  26:	89 1c 24             	mov    DWORD PTR [esp],ebx
  29:	e8 00 00 00 00       	call   2e <__ZN13FFTransformerIdE12arrayShuffleEP7ComplexIdEi+0x2e>
  2e:	0f b6 4d ec          	movzx  ecx,BYTE PTR [ebp-0x14]
  32:	d3 e8                	shr    eax,cl
  34:	83 ec 04             	sub    esp,0x4
  37:	39 c3                	cmp    ebx,eax
  39:	73 28                	jae    63 <__ZN13FFTransformerIdE12arrayShuffleEP7ComplexIdEi+0x63>
  3b:	c1 e0 04             	shl    eax,0x4
  3e:	dd 06                	fld    QWORD PTR [esi]
  40:	03 45 08             	add    eax,DWORD PTR [ebp+0x8]
  43:	dd 46 08             	fld    QWORD PTR [esi+0x8]
  46:	d9 c9                	fxch   st(1)
  48:	8b 08                	mov    ecx,DWORD PTR [eax]
  4a:	89 0e                	mov    DWORD PTR [esi],ecx
  4c:	8b 48 04             	mov    ecx,DWORD PTR [eax+0x4]
  4f:	89 4e 04             	mov    DWORD PTR [esi+0x4],ecx
  52:	8b 48 08             	mov    ecx,DWORD PTR [eax+0x8]
  55:	89 4e 08             	mov    DWORD PTR [esi+0x8],ecx
  58:	8b 48 0c             	mov    ecx,DWORD PTR [eax+0xc]
  5b:	89 4e 0c             	mov    DWORD PTR [esi+0xc],ecx
  5e:	dd 18                	fstp   QWORD PTR [eax]
  60:	dd 58 08             	fstp   QWORD PTR [eax+0x8]
  63:	83 c3 01             	add    ebx,0x1
  66:	83 c6 10             	add    esi,0x10
  69:	3b 5d 0c             	cmp    ebx,DWORD PTR [ebp+0xc]
  6c:	75 b6                	jne    24 <__ZN13FFTransformerIdE12arrayShuffleEP7ComplexIdEi+0x24>
  6e:	8d 65 f4             	lea    esp,[ebp-0xc]
  71:	5b                   	pop    ebx
  72:	5e                   	pop    esi
  73:	5f                   	pop    edi
  74:	5d                   	pop    ebp
  75:	c2 08 00             	ret    0x8
  78:	90                   	nop
  79:	90                   	nop
  7a:	90                   	nop
  7b:	90                   	nop
  7c:	90                   	nop
  7d:	90                   	nop
  7e:	90                   	nop
  7f:	90                   	nop

Disassembly of section .text$_ZN13FFTransformerIdEC2Ev:

00000000 <__ZN13FFTransformerIdEC2Ev>:
   0:	c7 01 08 00 00 00    	mov    DWORD PTR [ecx],0x8
   6:	c3                   	ret    
   7:	90                   	nop
   8:	90                   	nop
   9:	90                   	nop
   a:	90                   	nop
   b:	90                   	nop
   c:	90                   	nop
   d:	90                   	nop
   e:	90                   	nop
   f:	90                   	nop

Disassembly of section .text$_ZN13FFTransformerIdEC1Ev:

00000000 <__ZN13FFTransformerIdEC1Ev>:
   0:	c7 01 08 00 00 00    	mov    DWORD PTR [ecx],0x8
   6:	c3                   	ret    
   7:	90                   	nop
   8:	90                   	nop
   9:	90                   	nop
   a:	90                   	nop
   b:	90                   	nop
   c:	90                   	nop
   d:	90                   	nop
   e:	90                   	nop
   f:	90                   	nop

Disassembly of section .text$_ZN13FFTransformerIdEC2Eii:

00000000 <__ZN13FFTransformerIdEC2Eii>:
   0:	8b 44 24 04          	mov    eax,DWORD PTR [esp+0x4]
   4:	c7 01 08 00 00 00    	mov    DWORD PTR [ecx],0x8
   a:	85 c0                	test   eax,eax
   c:	7e 18                	jle    26 <__ZN13FFTransformerIdEC2Eii+0x26>
   e:	8d 50 ff             	lea    edx,[eax-0x1]
  11:	85 c2                	test   edx,eax
  13:	75 11                	jne    26 <__ZN13FFTransformerIdEC2Eii+0x26>
  15:	8b 54 24 08          	mov    edx,DWORD PTR [esp+0x8]
  19:	89 41 04             	mov    DWORD PTR [ecx+0x4],eax
  1c:	31 c0                	xor    eax,eax
  1e:	85 d2                	test   edx,edx
  20:	0f 9f c0             	setg   al
  23:	89 41 08             	mov    DWORD PTR [ecx+0x8],eax
  26:	c2 08 00             	ret    0x8
  29:	90                   	nop
  2a:	90                   	nop
  2b:	90                   	nop
  2c:	90                   	nop
  2d:	90                   	nop
  2e:	90                   	nop
  2f:	90                   	nop

Disassembly of section .text$_ZN13FFTransformerIdEC1Eii:

00000000 <__ZN13FFTransformerIdEC1Eii>:
   0:	8b 44 24 04          	mov    eax,DWORD PTR [esp+0x4]
   4:	c7 01 08 00 00 00    	mov    DWORD PTR [ecx],0x8
   a:	85 c0                	test   eax,eax
   c:	7e 18                	jle    26 <__ZN13FFTransformerIdEC1Eii+0x26>
   e:	8d 50 ff             	lea    edx,[eax-0x1]
  11:	85 c2                	test   edx,eax
  13:	75 11                	jne    26 <__ZN13FFTransformerIdEC1Eii+0x26>
  15:	8b 54 24 08          	mov    edx,DWORD PTR [esp+0x8]
  19:	89 41 04             	mov    DWORD PTR [ecx+0x4],eax
  1c:	31 c0                	xor    eax,eax
  1e:	85 d2                	test   edx,edx
  20:	0f 9f c0             	setg   al
  23:	89 41 08             	mov    DWORD PTR [ecx+0x8],eax
  26:	c2 08 00             	ret    0x8
  29:	90                   	nop
  2a:	90                   	nop
  2b:	90                   	nop
  2c:	90                   	nop
  2d:	90                   	nop
  2e:	90                   	nop
  2f:	90                   	nop

Disassembly of section .text$_ZN13FFTransformerIdED2Ev:

00000000 <__ZN13FFTransformerIdED2Ev>:
   0:	c7 01 08 00 00 00    	mov    DWORD PTR [ecx],0x8
   6:	c3                   	ret    
   7:	90                   	nop
   8:	90                   	nop
   9:	90                   	nop
   a:	90                   	nop
   b:	90                   	nop
   c:	90                   	nop
   d:	90                   	nop
   e:	90                   	nop
   f:	90                   	nop

Disassembly of section .text$_ZN13FFTransformerIdE7FFTInitEii:

00000000 <__ZN13FFTransformerIdE7FFTInitEii>:
   0:	53                   	push   ebx
   1:	8b 54 24 08          	mov    edx,DWORD PTR [esp+0x8]
   5:	31 c0                	xor    eax,eax
   7:	85 d2                	test   edx,edx
   9:	7e 1d                	jle    28 <__ZN13FFTransformerIdE7FFTInitEii+0x28>
   b:	8d 5a ff             	lea    ebx,[edx-0x1]
   e:	85 d3                	test   ebx,edx
  10:	75 16                	jne    28 <__ZN13FFTransformerIdE7FFTInitEii+0x28>
  12:	8b 5c 24 0c          	mov    ebx,DWORD PTR [esp+0xc]
  16:	31 c0                	xor    eax,eax
  18:	89 51 04             	mov    DWORD PTR [ecx+0x4],edx
  1b:	85 db                	test   ebx,ebx
  1d:	0f 9f c0             	setg   al
  20:	89 41 08             	mov    DWORD PTR [ecx+0x8],eax
  23:	b8 01 00 00 00       	mov    eax,0x1
  28:	5b                   	pop    ebx
  29:	c2 08 00             	ret    0x8
  2c:	90                   	nop
  2d:	90                   	nop
  2e:	90                   	nop
  2f:	90                   	nop

Disassembly of section .text$_ZN13FFTransformerIdE11FFTransformEP7ComplexIdE:

00000000 <__ZN13FFTransformerIdE11FFTransformEP7ComplexIdE>:
   0:	55                   	push   ebp
   1:	31 c0                	xor    eax,eax
   3:	89 e5                	mov    ebp,esp
   5:	57                   	push   edi
   6:	56                   	push   esi
   7:	53                   	push   ebx
   8:	89 cb                	mov    ebx,ecx
   a:	83 ec 5c             	sub    esp,0x5c
   d:	8b 51 04             	mov    edx,DWORD PTR [ecx+0x4]
  10:	85 d2                	test   edx,edx
  12:	0f 8e 6d 01 00 00    	jle    185 <__ZN13FFTransformerIdE11FFTransformEP7ComplexIdE+0x185>
  18:	8d 4a ff             	lea    ecx,[edx-0x1]
  1b:	85 d1                	test   ecx,edx
  1d:	0f 85 62 01 00 00    	jne    185 <__ZN13FFTransformerIdE11FFTransformEP7ComplexIdE+0x185>
  23:	8b 45 08             	mov    eax,DWORD PTR [ebp+0x8]
  26:	89 d9                	mov    ecx,ebx
  28:	89 54 24 04          	mov    DWORD PTR [esp+0x4],edx
  2c:	89 04 24             	mov    DWORD PTR [esp],eax
  2f:	e8 00 00 00 00       	call   34 <__ZN13FFTransformerIdE11FFTransformEP7ComplexIdE+0x34>
  34:	8b 4b 04             	mov    ecx,DWORD PTR [ebx+0x4]
  37:	c7 45 ac 1f 00 00 00 	mov    DWORD PTR [ebp-0x54],0x1f
  3e:	0f bd c1             	bsr    eax,ecx
  41:	83 f0 1f             	xor    eax,0x1f
  44:	29 45 ac             	sub    DWORD PTR [ebp-0x54],eax
  47:	83 ec 08             	sub    esp,0x8
  4a:	8b 75 ac             	mov    esi,DWORD PTR [ebp-0x54]
  4d:	85 f6                	test   esi,esi
  4f:	0f 8e f5 00 00 00    	jle    14a <__ZN13FFTransformerIdE11FFTransformEP7ComplexIdE+0x14a>
  55:	db 43 08             	fild   DWORD PTR [ebx+0x8]
  58:	89 ce                	mov    esi,ecx
  5a:	dc 0d 08 00 00 00    	fmul   QWORD PTR ds:0x8
  60:	c7 45 b0 00 00 00 00 	mov    DWORD PTR [ebp-0x50],0x0
  67:	c7 45 d8 01 00 00 00 	mov    DWORD PTR [ebp-0x28],0x1
  6e:	dd 5d b8             	fstp   QWORD PTR [ebp-0x48]
  71:	8b 5d d8             	mov    ebx,DWORD PTR [ebp-0x28]
  74:	8b 45 08             	mov    eax,DWORD PTR [ebp+0x8]
  77:	c7 45 e0 00 00 00 00 	mov    DWORD PTR [ebp-0x20],0x0
  7e:	89 5d e4             	mov    DWORD PTR [ebp-0x1c],ebx
  81:	89 d9                	mov    ecx,ebx
  83:	db 45 e4             	fild   DWORD PTR [ebp-0x1c]
  86:	c1 e1 05             	shl    ecx,0x5
  89:	8d 3c 1b             	lea    edi,[ebx+ebx*1]
  8c:	dd 5d c0             	fstp   QWORD PTR [ebp-0x40]
  8f:	89 45 dc             	mov    DWORD PTR [ebp-0x24],eax
  92:	c1 e3 04             	shl    ebx,0x4
  95:	89 4d b4             	mov    DWORD PTR [ebp-0x4c],ecx
  98:	db 45 e0             	fild   DWORD PTR [ebp-0x20]
  9b:	dc 4d b8             	fmul   QWORD PTR [ebp-0x48]
  9e:	dc 75 c0             	fdiv   QWORD PTR [ebp-0x40]
  a1:	dd 14 24             	fst    QWORD PTR [esp]
  a4:	dd 5d c8             	fstp   QWORD PTR [ebp-0x38]
  a7:	e8 00 00 00 00       	call   ac <__ZN13FFTransformerIdE11FFTransformEP7ComplexIdE+0xac>
  ac:	dd 5d d0             	fstp   QWORD PTR [ebp-0x30]
  af:	dd 45 c8             	fld    QWORD PTR [ebp-0x38]
  b2:	dd 1c 24             	fstp   QWORD PTR [esp]
  b5:	e8 00 00 00 00       	call   ba <__ZN13FFTransformerIdE11FFTransformEP7ComplexIdE+0xba>
  ba:	8b 4d e0             	mov    ecx,DWORD PTR [ebp-0x20]
  bd:	8b 45 dc             	mov    eax,DWORD PTR [ebp-0x24]
  c0:	39 ce                	cmp    esi,ecx
  c2:	89 ca                	mov    edx,ecx
  c4:	dd 45 d0             	fld    QWORD PTR [ebp-0x30]
  c7:	7e 4c                	jle    115 <__ZN13FFTransformerIdE11FFTransformEP7ComplexIdE+0x115>
  c9:	8b 4d b4             	mov    ecx,DWORD PTR [ebp-0x4c]
  cc:	8d 74 26 00          	lea    esi,[esi+eiz*1+0x0]
  d0:	dd 04 18             	fld    QWORD PTR [eax+ebx*1]
  d3:	01 fa                	add    edx,edi
  d5:	dd 44 18 08          	fld    QWORD PTR [eax+ebx*1+0x8]
  d9:	d9 c1                	fld    st(1)
  db:	d8 cb                	fmul   st,st(3)
  dd:	d9 c1                	fld    st(1)
  df:	d8 cd                	fmul   st,st(5)
  e1:	de e9                	fsubrp st(1),st
  e3:	d9 ca                	fxch   st(2)
  e5:	d8 cc                	fmul   st,st(4)
  e7:	d9 c9                	fxch   st(1)
  e9:	d8 cb                	fmul   st,st(3)
  eb:	de c1                	faddp  st(1),st
  ed:	d9 c1                	fld    st(1)
  ef:	dc 28                	fsubr  QWORD PTR [eax]
  f1:	dd 1c 18             	fstp   QWORD PTR [eax+ebx*1]
  f4:	d9 c0                	fld    st(0)
  f6:	dc 68 08             	fsubr  QWORD PTR [eax+0x8]
  f9:	dd 5c 18 08          	fstp   QWORD PTR [eax+ebx*1+0x8]
  fd:	d9 c9                	fxch   st(1)
  ff:	dc 00                	fadd   QWORD PTR [eax]
 101:	dd 18                	fstp   QWORD PTR [eax]
 103:	dc 40 08             	fadd   QWORD PTR [eax+0x8]
 106:	dd 58 08             	fstp   QWORD PTR [eax+0x8]
 109:	01 c8                	add    eax,ecx
 10b:	39 d6                	cmp    esi,edx
 10d:	7f c1                	jg     d0 <__ZN13FFTransformerIdE11FFTransformEP7ComplexIdE+0xd0>
 10f:	dd d8                	fstp   st(0)
 111:	dd d8                	fstp   st(0)
 113:	eb 0b                	jmp    120 <__ZN13FFTransformerIdE11FFTransformEP7ComplexIdE+0x120>
 115:	dd d8                	fstp   st(0)
 117:	dd d8                	fstp   st(0)
 119:	8d b4 26 00 00 00 00 	lea    esi,[esi+eiz*1+0x0]
 120:	83 45 e0 01          	add    DWORD PTR [ebp-0x20],0x1
 124:	8b 45 d8             	mov    eax,DWORD PTR [ebp-0x28]
 127:	83 45 dc 10          	add    DWORD PTR [ebp-0x24],0x10
 12b:	39 45 e0             	cmp    DWORD PTR [ebp-0x20],eax
 12e:	0f 8c 64 ff ff ff    	jl     98 <__ZN13FFTransformerIdE11FFTransformEP7ComplexIdE+0x98>
 134:	83 45 b0 01          	add    DWORD PTR [ebp-0x50],0x1
 138:	8b 45 ac             	mov    eax,DWORD PTR [ebp-0x54]
 13b:	39 45 b0             	cmp    DWORD PTR [ebp-0x50],eax
 13e:	74 08                	je     148 <__ZN13FFTransformerIdE11FFTransformEP7ComplexIdE+0x148>
 140:	89 7d d8             	mov    DWORD PTR [ebp-0x28],edi
 143:	e9 29 ff ff ff       	jmp    71 <__ZN13FFTransformerIdE11FFTransformEP7ComplexIdE+0x71>
 148:	89 f1                	mov    ecx,esi
 14a:	8b 45 08             	mov    eax,DWORD PTR [ebp+0x8]
 14d:	89 ca                	mov    edx,ecx
 14f:	c1 e2 04             	shl    edx,0x4
 152:	89 4d e4             	mov    DWORD PTR [ebp-0x1c],ecx
 155:	db 45 e4             	fild   DWORD PTR [ebp-0x1c]
 158:	01 c2                	add    edx,eax
 15a:	85 c9                	test   ecx,ecx
 15c:	d8 3d 00 00 00 00    	fdivr  DWORD PTR ds:0x0
 162:	7e 1a                	jle    17e <__ZN13FFTransformerIdE11FFTransformEP7ComplexIdE+0x17e>
 164:	dd 00                	fld    QWORD PTR [eax]
 166:	83 c0 10             	add    eax,0x10
 169:	d8 c9                	fmul   st,st(1)
 16b:	dd 58 f0             	fstp   QWORD PTR [eax-0x10]
 16e:	dd 40 f8             	fld    QWORD PTR [eax-0x8]
 171:	d8 c9                	fmul   st,st(1)
 173:	dd 58 f8             	fstp   QWORD PTR [eax-0x8]
 176:	39 d0                	cmp    eax,edx
 178:	75 ea                	jne    164 <__ZN13FFTransformerIdE11FFTransformEP7ComplexIdE+0x164>
 17a:	dd d8                	fstp   st(0)
 17c:	eb 02                	jmp    180 <__ZN13FFTransformerIdE11FFTransformEP7ComplexIdE+0x180>
 17e:	dd d8                	fstp   st(0)
 180:	b8 01 00 00 00       	mov    eax,0x1
 185:	8d 65 f4             	lea    esp,[ebp-0xc]
 188:	5b                   	pop    ebx
 189:	5e                   	pop    esi
 18a:	5f                   	pop    edi
 18b:	5d                   	pop    ebp
 18c:	c2 04 00             	ret    0x4
 18f:	90                   	nop

Disassembly of section .text$_ZN13FFTransformerIeE12isPowerOfTwoEj:

00000000 <__ZN13FFTransformerIeE12isPowerOfTwoEj>:
   0:	8b 44 24 04          	mov    eax,DWORD PTR [esp+0x4]
   4:	8d 50 ff             	lea    edx,[eax-0x1]
   7:	85 c2                	test   edx,eax
   9:	0f 94 c0             	sete   al
   c:	c2 04 00             	ret    0x4
   f:	90                   	nop

Disassembly of section .text$_ZN13FFTransformerIeE13getPowerOfTwoEj:

00000000 <__ZN13FFTransformerIeE13getPowerOfTwoEj>:
   0:	0f bd 54 24 04       	bsr    edx,DWORD PTR [esp+0x4]
   5:	b8 1f 00 00 00       	mov    eax,0x1f
   a:	83 f2 1f             	xor    edx,0x1f
   d:	29 d0                	sub    eax,edx
   f:	c2 04 00             	ret    0x4
  12:	90                   	nop
  13:	90                   	nop
  14:	90                   	nop
  15:	90                   	nop
  16:	90                   	nop
  17:	90                   	nop
  18:	90                   	nop
  19:	90                   	nop
  1a:	90                   	nop
  1b:	90                   	nop
  1c:	90                   	nop
  1d:	90                   	nop
  1e:	90                   	nop
  1f:	90                   	nop

Disassembly of section .text$_ZN13FFTransformerIeE15bitReverseInt32Ej:

00000000 <__ZN13FFTransformerIeE15bitReverseInt32Ej>:
   0:	57                   	push   edi
   1:	b9 40 00 00 00       	mov    ecx,0x40
   6:	56                   	push   esi
   7:	be 00 00 00 00       	mov    esi,0x0
   c:	81 ec 00 01 00 00    	sub    esp,0x100
  12:	8b 84 24 0c 01 00 00 	mov    eax,DWORD PTR [esp+0x10c]
  19:	89 e7                	mov    edi,esp
  1b:	f3 a5                	rep movs DWORD PTR es:[edi],DWORD PTR ds:[esi]
  1d:	0f b6 d0             	movzx  edx,al
  20:	8a 04 14             	mov    al,BYTE PTR [esp+edx*1]
  23:	0f b6 d4             	movzx  edx,ah
  26:	0f b6 14 14          	movzx  edx,BYTE PTR [esp+edx*1]
  2a:	88 d4                	mov    ah,dl
  2c:	89 c2                	mov    edx,eax
  2e:	25 ff ff 00 ff       	and    eax,0xff00ffff
  33:	c1 ea 10             	shr    edx,0x10
  36:	0f b6 d2             	movzx  edx,dl
  39:	0f b6 14 14          	movzx  edx,BYTE PTR [esp+edx*1]
  3d:	c1 e2 10             	shl    edx,0x10
  40:	09 d0                	or     eax,edx
  42:	89 c2                	mov    edx,eax
  44:	25 ff ff ff 00       	and    eax,0xffffff
  49:	c1 ea 18             	shr    edx,0x18
  4c:	0f b6 14 14          	movzx  edx,BYTE PTR [esp+edx*1]
  50:	81 c4 00 01 00 00    	add    esp,0x100
  56:	5e                   	pop    esi
  57:	5f                   	pop    edi
  58:	c1 e2 18             	shl    edx,0x18
  5b:	09 d0                	or     eax,edx
  5d:	0f c8                	bswap  eax
  5f:	c2 04 00             	ret    0x4
  62:	90                   	nop
  63:	90                   	nop
  64:	90                   	nop
  65:	90                   	nop
  66:	90                   	nop
  67:	90                   	nop
  68:	90                   	nop
  69:	90                   	nop
  6a:	90                   	nop
  6b:	90                   	nop
  6c:	90                   	nop
  6d:	90                   	nop
  6e:	90                   	nop
  6f:	90                   	nop

Disassembly of section .text$_ZN13FFTransformerIeE12arrayShuffleEP7ComplexIeEi:

00000000 <__ZN13FFTransformerIeE12arrayShuffleEP7ComplexIeEi>:
   0:	55                   	push   ebp
   1:	89 e5                	mov    ebp,esp
   3:	57                   	push   edi
   4:	89 cf                	mov    edi,ecx
   6:	56                   	push   esi
   7:	31 f6                	xor    esi,esi
   9:	53                   	push   ebx
   a:	83 ec 08             	sub    esp,0x8
   d:	8b 5d 08             	mov    ebx,DWORD PTR [ebp+0x8]
  10:	0f bd 45 0c          	bsr    eax,DWORD PTR [ebp+0xc]
  14:	83 f0 1f             	xor    eax,0x1f
  17:	83 c0 01             	add    eax,0x1
  1a:	89 45 f0             	mov    DWORD PTR [ebp-0x10],eax
  1d:	8b 45 0c             	mov    eax,DWORD PTR [ebp+0xc]
  20:	85 c0                	test   eax,eax
  22:	7e 59                	jle    7d <__ZN13FFTransformerIeE12arrayShuffleEP7ComplexIeEi+0x7d>
  24:	89 f9                	mov    ecx,edi
  26:	89 34 24             	mov    DWORD PTR [esp],esi
  29:	e8 00 00 00 00       	call   2e <__ZN13FFTransformerIeE12arrayShuffleEP7ComplexIeEi+0x2e>
  2e:	0f b6 4d f0          	movzx  ecx,BYTE PTR [ebp-0x10]
  32:	d3 e8                	shr    eax,cl
  34:	83 ec 04             	sub    esp,0x4
  37:	39 c6                	cmp    esi,eax
  39:	73 37                	jae    72 <__ZN13FFTransformerIeE12arrayShuffleEP7ComplexIeEi+0x72>
  3b:	8b 55 08             	mov    edx,DWORD PTR [ebp+0x8]
  3e:	8d 04 40             	lea    eax,[eax+eax*2]
  41:	db 2b                	fld    TBYTE PTR [ebx]
  43:	8d 04 c2             	lea    eax,[edx+eax*8]
  46:	8b 08                	mov    ecx,DWORD PTR [eax]
  48:	db 6b 0c             	fld    TBYTE PTR [ebx+0xc]
  4b:	d9 c9                	fxch   st(1)
  4d:	89 0b                	mov    DWORD PTR [ebx],ecx
  4f:	8b 48 04             	mov    ecx,DWORD PTR [eax+0x4]
  52:	89 4b 04             	mov    DWORD PTR [ebx+0x4],ecx
  55:	8b 48 08             	mov    ecx,DWORD PTR [eax+0x8]
  58:	89 4b 08             	mov    DWORD PTR [ebx+0x8],ecx
  5b:	8b 48 0c             	mov    ecx,DWORD PTR [eax+0xc]
  5e:	89 4b 0c             	mov    DWORD PTR [ebx+0xc],ecx
  61:	8b 48 10             	mov    ecx,DWORD PTR [eax+0x10]
  64:	89 4b 10             	mov    DWORD PTR [ebx+0x10],ecx
  67:	8b 48 14             	mov    ecx,DWORD PTR [eax+0x14]
  6a:	89 4b 14             	mov    DWORD PTR [ebx+0x14],ecx
  6d:	db 38                	fstp   TBYTE PTR [eax]
  6f:	db 78 0c             	fstp   TBYTE PTR [eax+0xc]
  72:	83 c6 01             	add    esi,0x1
  75:	83 c3 18             	add    ebx,0x18
  78:	3b 75 0c             	cmp    esi,DWORD PTR [ebp+0xc]
  7b:	75 a7                	jne    24 <__ZN13FFTransformerIeE12arrayShuffleEP7ComplexIeEi+0x24>
  7d:	8d 65 f4             	lea    esp,[ebp-0xc]
  80:	5b                   	pop    ebx
  81:	5e                   	pop    esi
  82:	5f                   	pop    edi
  83:	5d                   	pop    ebp
  84:	c2 08 00             	ret    0x8
  87:	90                   	nop
  88:	90                   	nop
  89:	90                   	nop
  8a:	90                   	nop
  8b:	90                   	nop
  8c:	90                   	nop
  8d:	90                   	nop
  8e:	90                   	nop
  8f:	90                   	nop

Disassembly of section .text$_ZN13FFTransformerIeEC2Ev:

00000000 <__ZN13FFTransformerIeEC2Ev>:
   0:	c7 01 08 00 00 00    	mov    DWORD PTR [ecx],0x8
   6:	c3                   	ret    
   7:	90                   	nop
   8:	90                   	nop
   9:	90                   	nop
   a:	90                   	nop
   b:	90                   	nop
   c:	90                   	nop
   d:	90                   	nop
   e:	90                   	nop
   f:	90                   	nop

Disassembly of section .text$_ZN13FFTransformerIeEC1Ev:

00000000 <__ZN13FFTransformerIeEC1Ev>:
   0:	c7 01 08 00 00 00    	mov    DWORD PTR [ecx],0x8
   6:	c3                   	ret    
   7:	90                   	nop
   8:	90                   	nop
   9:	90                   	nop
   a:	90                   	nop
   b:	90                   	nop
   c:	90                   	nop
   d:	90                   	nop
   e:	90                   	nop
   f:	90                   	nop

Disassembly of section .text$_ZN13FFTransformerIeEC2Eii:

00000000 <__ZN13FFTransformerIeEC2Eii>:
   0:	8b 44 24 04          	mov    eax,DWORD PTR [esp+0x4]
   4:	c7 01 08 00 00 00    	mov    DWORD PTR [ecx],0x8
   a:	85 c0                	test   eax,eax
   c:	7e 18                	jle    26 <__ZN13FFTransformerIeEC2Eii+0x26>
   e:	8d 50 ff             	lea    edx,[eax-0x1]
  11:	85 c2                	test   edx,eax
  13:	75 11                	jne    26 <__ZN13FFTransformerIeEC2Eii+0x26>
  15:	8b 54 24 08          	mov    edx,DWORD PTR [esp+0x8]
  19:	89 41 04             	mov    DWORD PTR [ecx+0x4],eax
  1c:	31 c0                	xor    eax,eax
  1e:	85 d2                	test   edx,edx
  20:	0f 9f c0             	setg   al
  23:	89 41 08             	mov    DWORD PTR [ecx+0x8],eax
  26:	c2 08 00             	ret    0x8
  29:	90                   	nop
  2a:	90                   	nop
  2b:	90                   	nop
  2c:	90                   	nop
  2d:	90                   	nop
  2e:	90                   	nop
  2f:	90                   	nop

Disassembly of section .text$_ZN13FFTransformerIeEC1Eii:

00000000 <__ZN13FFTransformerIeEC1Eii>:
   0:	8b 44 24 04          	mov    eax,DWORD PTR [esp+0x4]
   4:	c7 01 08 00 00 00    	mov    DWORD PTR [ecx],0x8
   a:	85 c0                	test   eax,eax
   c:	7e 18                	jle    26 <__ZN13FFTransformerIeEC1Eii+0x26>
   e:	8d 50 ff             	lea    edx,[eax-0x1]
  11:	85 c2                	test   edx,eax
  13:	75 11                	jne    26 <__ZN13FFTransformerIeEC1Eii+0x26>
  15:	8b 54 24 08          	mov    edx,DWORD PTR [esp+0x8]
  19:	89 41 04             	mov    DWORD PTR [ecx+0x4],eax
  1c:	31 c0                	xor    eax,eax
  1e:	85 d2                	test   edx,edx
  20:	0f 9f c0             	setg   al
  23:	89 41 08             	mov    DWORD PTR [ecx+0x8],eax
  26:	c2 08 00             	ret    0x8
  29:	90                   	nop
  2a:	90                   	nop
  2b:	90                   	nop
  2c:	90                   	nop
  2d:	90                   	nop
  2e:	90                   	nop
  2f:	90                   	nop

Disassembly of section .text$_ZN13FFTransformerIeED2Ev:

00000000 <__ZN13FFTransformerIeED2Ev>:
   0:	c7 01 08 00 00 00    	mov    DWORD PTR [ecx],0x8
   6:	c3                   	ret    
   7:	90                   	nop
   8:	90                   	nop
   9:	90                   	nop
   a:	90                   	nop
   b:	90                   	nop
   c:	90                   	nop
   d:	90                   	nop
   e:	90                   	nop
   f:	90                   	nop

Disassembly of section .text$_ZN13FFTransformerIeE7FFTInitEii:

00000000 <__ZN13FFTransformerIeE7FFTInitEii>:
   0:	53                   	push   ebx
   1:	8b 54 24 08          	mov    edx,DWORD PTR [esp+0x8]
   5:	31 c0                	xor    eax,eax
   7:	85 d2                	test   edx,edx
   9:	7e 1d                	jle    28 <__ZN13FFTransformerIeE7FFTInitEii+0x28>
   b:	8d 5a ff             	lea    ebx,[edx-0x1]
   e:	85 d3                	test   ebx,edx
  10:	75 16                	jne    28 <__ZN13FFTransformerIeE7FFTInitEii+0x28>
  12:	8b 5c 24 0c          	mov    ebx,DWORD PTR [esp+0xc]
  16:	31 c0                	xor    eax,eax
  18:	89 51 04             	mov    DWORD PTR [ecx+0x4],edx
  1b:	85 db                	test   ebx,ebx
  1d:	0f 9f c0             	setg   al
  20:	89 41 08             	mov    DWORD PTR [ecx+0x8],eax
  23:	b8 01 00 00 00       	mov    eax,0x1
  28:	5b                   	pop    ebx
  29:	c2 08 00             	ret    0x8
  2c:	90                   	nop
  2d:	90                   	nop
  2e:	90                   	nop
  2f:	90                   	nop

Disassembly of section .text$_ZN13FFTransformerIeE11FFTransformEP7ComplexIeE:

00000000 <__ZN13FFTransformerIeE11FFTransformEP7ComplexIeE>:
   0:	55                   	push   ebp
   1:	31 c0                	xor    eax,eax
   3:	89 e5                	mov    ebp,esp
   5:	57                   	push   edi
   6:	56                   	push   esi
   7:	53                   	push   ebx
   8:	89 cb                	mov    ebx,ecx
   a:	83 ec 5c             	sub    esp,0x5c
   d:	8b 51 04             	mov    edx,DWORD PTR [ecx+0x4]
  10:	85 d2                	test   edx,edx
  12:	0f 8e 6b 01 00 00    	jle    183 <__ZN13FFTransformerIeE11FFTransformEP7ComplexIeE+0x183>
  18:	8d 4a ff             	lea    ecx,[edx-0x1]
  1b:	85 d1                	test   ecx,edx
  1d:	0f 85 60 01 00 00    	jne    183 <__ZN13FFTransformerIeE11FFTransformEP7ComplexIeE+0x183>
  23:	8b 45 08             	mov    eax,DWORD PTR [ebp+0x8]
  26:	89 d9                	mov    ecx,ebx
  28:	89 54 24 04          	mov    DWORD PTR [esp+0x4],edx
  2c:	89 04 24             	mov    DWORD PTR [esp],eax
  2f:	e8 00 00 00 00       	call   34 <__ZN13FFTransformerIeE11FFTransformEP7ComplexIeE+0x34>
  34:	8b 7b 04             	mov    edi,DWORD PTR [ebx+0x4]
  37:	c7 45 a4 1f 00 00 00 	mov    DWORD PTR [ebp-0x5c],0x1f
  3e:	0f bd c7             	bsr    eax,edi
  41:	83 f0 1f             	xor    eax,0x1f
  44:	29 45 a4             	sub    DWORD PTR [ebp-0x5c],eax
  47:	83 ec 08             	sub    esp,0x8
  4a:	8b 75 a4             	mov    esi,DWORD PTR [ebp-0x5c]
  4d:	85 f6                	test   esi,esi
  4f:	0f 8e f4 00 00 00    	jle    149 <__ZN13FFTransformerIeE11FFTransformEP7ComplexIeE+0x149>
  55:	db 43 08             	fild   DWORD PTR [ebx+0x8]
  58:	dc 0d 08 00 00 00    	fmul   QWORD PTR ds:0x8
  5e:	c7 45 b0 00 00 00 00 	mov    DWORD PTR [ebp-0x50],0x0
  65:	c7 45 d8 01 00 00 00 	mov    DWORD PTR [ebp-0x28],0x1
  6c:	dd 5d a8             	fstp   QWORD PTR [ebp-0x58]
  6f:	8b 45 d8             	mov    eax,DWORD PTR [ebp-0x28]
  72:	8b 5d 08             	mov    ebx,DWORD PTR [ebp+0x8]
  75:	c7 45 e0 00 00 00 00 	mov    DWORD PTR [ebp-0x20],0x0
  7c:	8d 34 00             	lea    esi,[eax+eax*1]
  7f:	89 45 e4             	mov    DWORD PTR [ebp-0x1c],eax
  82:	89 5d dc             	mov    DWORD PTR [ebp-0x24],ebx
  85:	8d 1c 86             	lea    ebx,[esi+eax*4]
  88:	01 f0                	add    eax,esi
  8a:	db 45 e4             	fild   DWORD PTR [ebp-0x1c]
  8d:	c1 e0 03             	shl    eax,0x3
  90:	dd 5d b8             	fstp   QWORD PTR [ebp-0x48]
  93:	c1 e3 03             	shl    ebx,0x3
  96:	89 45 b4             	mov    DWORD PTR [ebp-0x4c],eax
  99:	8d b4 26 00 00 00 00 	lea    esi,[esi+eiz*1+0x0]
  a0:	db 45 e0             	fild   DWORD PTR [ebp-0x20]
  a3:	dc 4d a8             	fmul   QWORD PTR [ebp-0x58]
  a6:	dc 75 b8             	fdiv   QWORD PTR [ebp-0x48]
  a9:	dd 14 24             	fst    QWORD PTR [esp]
  ac:	dd 5d c0             	fstp   QWORD PTR [ebp-0x40]
  af:	e8 00 00 00 00       	call   b4 <__ZN13FFTransformerIeE11FFTransformEP7ComplexIeE+0xb4>
  b4:	db 7d c8             	fstp   TBYTE PTR [ebp-0x38]
  b7:	dd 45 c0             	fld    QWORD PTR [ebp-0x40]
  ba:	dd 1c 24             	fstp   QWORD PTR [esp]
  bd:	e8 00 00 00 00       	call   c2 <__ZN13FFTransformerIeE11FFTransformEP7ComplexIeE+0xc2>
  c2:	8b 4d dc             	mov    ecx,DWORD PTR [ebp-0x24]
  c5:	8b 55 b4             	mov    edx,DWORD PTR [ebp-0x4c]
  c8:	89 c8                	mov    eax,ecx
  ca:	01 ca                	add    edx,ecx
  cc:	8b 4d e0             	mov    ecx,DWORD PTR [ebp-0x20]
  cf:	db 6d c8             	fld    TBYTE PTR [ebp-0x38]
  d2:	39 cf                	cmp    edi,ecx
  d4:	7e 47                	jle    11d <__ZN13FFTransformerIeE11FFTransformEP7ComplexIeE+0x11d>
  d6:	db 2a                	fld    TBYTE PTR [edx]
  d8:	01 f1                	add    ecx,esi
  da:	db 6a 0c             	fld    TBYTE PTR [edx+0xc]
  dd:	d9 c1                	fld    st(1)
  df:	d8 cb                	fmul   st,st(3)
  e1:	d9 c1                	fld    st(1)
  e3:	d8 cd                	fmul   st,st(5)
  e5:	de e9                	fsubrp st(1),st
  e7:	d9 ca                	fxch   st(2)
  e9:	d8 cc                	fmul   st,st(4)
  eb:	d9 c9                	fxch   st(1)
  ed:	d8 cb                	fmul   st,st(3)
  ef:	de c1                	faddp  st(1),st
  f1:	db 28                	fld    TBYTE PTR [eax]
  f3:	d8 e2                	fsub   st,st(2)
  f5:	db 3a                	fstp   TBYTE PTR [edx]
  f7:	db 68 0c             	fld    TBYTE PTR [eax+0xc]
  fa:	d8 e1                	fsub   st,st(1)
  fc:	db 7a 0c             	fstp   TBYTE PTR [edx+0xc]
  ff:	01 da                	add    edx,ebx
 101:	db 28                	fld    TBYTE PTR [eax]
 103:	de c2                	faddp  st(2),st
 105:	d9 c9                	fxch   st(1)
 107:	db 38                	fstp   TBYTE PTR [eax]
 109:	db 68 0c             	fld    TBYTE PTR [eax+0xc]
 10c:	de c1                	faddp  st(1),st
 10e:	db 78 0c             	fstp   TBYTE PTR [eax+0xc]
 111:	01 d8                	add    eax,ebx
 113:	39 cf                	cmp    edi,ecx
 115:	7f bf                	jg     d6 <__ZN13FFTransformerIeE11FFTransformEP7ComplexIeE+0xd6>
 117:	dd d8                	fstp   st(0)
 119:	dd d8                	fstp   st(0)
 11b:	eb 04                	jmp    121 <__ZN13FFTransformerIeE11FFTransformEP7ComplexIeE+0x121>
 11d:	dd d8                	fstp   st(0)
 11f:	dd d8                	fstp   st(0)
 121:	83 45 e0 01          	add    DWORD PTR [ebp-0x20],0x1
 125:	8b 45 d8             	mov    eax,DWORD PTR [ebp-0x28]
 128:	83 45 dc 18          	add    DWORD PTR [ebp-0x24],0x18
 12c:	39 45 e0             	cmp    DWORD PTR [ebp-0x20],eax
 12f:	0f 8c 6b ff ff ff    	jl     a0 <__ZN13FFTransformerIeE11FFTransformEP7ComplexIeE+0xa0>
 135:	83 45 b0 01          	add    DWORD PTR [ebp-0x50],0x1
 139:	8b 45 a4             	mov    eax,DWORD PTR [ebp-0x5c]
 13c:	39 45 b0             	cmp    DWORD PTR [ebp-0x50],eax
 13f:	74 08                	je     149 <__ZN13FFTransformerIeE11FFTransformEP7ComplexIeE+0x149>
 141:	89 75 d8             	mov    DWORD PTR [ebp-0x28],esi
 144:	e9 26 ff ff ff       	jmp    6f <__ZN13FFTransformerIeE11FFTransformEP7ComplexIeE+0x6f>
 149:	89 7d e4             	mov    DWORD PTR [ebp-0x1c],edi
 14c:	85 ff                	test   edi,edi
 14e:	db 45 e4             	fild   DWORD PTR [ebp-0x1c]
 151:	d8 3d 00 00 00 00    	fdivr  DWORD PTR ds:0x0
 157:	7e 23                	jle    17c <__ZN13FFTransformerIeE11FFTransformEP7ComplexIeE+0x17c>
 159:	8b 45 08             	mov    eax,DWORD PTR [ebp+0x8]
 15c:	8d 14 7f             	lea    edx,[edi+edi*2]
 15f:	8d 14 d0             	lea    edx,[eax+edx*8]
 162:	db 28                	fld    TBYTE PTR [eax]
 164:	83 c0 18             	add    eax,0x18
 167:	d8 c9                	fmul   st,st(1)
 169:	db 78 e8             	fstp   TBYTE PTR [eax-0x18]
 16c:	db 68 f4             	fld    TBYTE PTR [eax-0xc]
 16f:	d8 c9                	fmul   st,st(1)
 171:	db 78 f4             	fstp   TBYTE PTR [eax-0xc]
 174:	39 d0                	cmp    eax,edx
 176:	75 ea                	jne    162 <__ZN13FFTransformerIeE11FFTransformEP7ComplexIeE+0x162>
 178:	dd d8                	fstp   st(0)
 17a:	eb 02                	jmp    17e <__ZN13FFTransformerIeE11FFTransformEP7ComplexIeE+0x17e>
 17c:	dd d8                	fstp   st(0)
 17e:	b8 01 00 00 00       	mov    eax,0x1
 183:	8d 65 f4             	lea    esp,[ebp-0xc]
 186:	5b                   	pop    ebx
 187:	5e                   	pop    esi
 188:	5f                   	pop    edi
 189:	5d                   	pop    ebp
 18a:	c2 04 00             	ret    0x4
 18d:	90                   	nop
 18e:	90                   	nop
 18f:	90                   	nop
